Zilog eZ80 Macro Assembler Version 4.3 (19073001)06-Aug-22     16:26:50     page:   1


PC     Object              I  Line    Source 
                           A     1    ; Zilog eZ80 ANSI C Compiler Release 3.4
                           A     2    ; -nomodsect -optspeed -noreduceopt -nopadbranc
                           A     3    ; -peephole -globalopt -localcse -const=ROM 
                           A     4    	FILE	"..\src\game.c"
                           A     5    	.assume ADL=1
                           A     6    .DEBUG "C"
                           A     7    	SEGMENT CODE
                           A     8    .BEGREC "sokobanlevel",1207
                           A     9    .DEFINE "xpos"
                           A    10    .VALUE 0
                           A    11    .CLASS 8
                           A    12    .TYPE 12
                           A    13    .ENDEF
                           A    14    .DEFINE "ypos"
                           A    15    .VALUE 1
                           A    16    .CLASS 8
                           A    17    .TYPE 12
                           A    18    .ENDEF
                           A    19    .DEFINE "width"
                           A    20    .VALUE 2
                           A    21    .CLASS 8
                           A    22    .TYPE 12
                           A    23    .ENDEF
                           A    24    .DEFINE "height"
                           A    25    .VALUE 3
                           A    26    .CLASS 8
                           A    27    .TYPE 12
                           A    28    .ENDEF
                           A    29    .DEFINE "goals"
                           A    30    .VALUE 4
                           A    31    .CLASS 8
                           A    32    .TYPE 12
                           A    33    .ENDEF
                           A    34    .DEFINE "goalstaken"
                           A    35    .VALUE 5
                           A    36    .CLASS 8
                           A    37    .TYPE 12
                           A    38    .ENDEF
                           A    39    .DEFINE "crates"
                           A    40    .VALUE 6
                           A    41    .CLASS 8
                           A    42    .TYPE 12
                           A    43    .ENDEF
                           A    44    .DEFINE "data"
                           A    45    .VALUE 7
                           A    46    .CLASS 8
                           A    47    .DIM 30
                           A    48    .DIM 40
                           A    49    .TYPE 876
                           A    50    .ENDEF
                           A    51    .ENDREC "sokobanlevel"
                           A    52    .BEGREC "NONAME0",2
                           A    53    .DEFINE "ch"
                           A    54    .VALUE 0
                           A    55    .CLASS 8
                           A    56    .TYPE 2
                           A    57    .ENDEF
                           A    58    .DEFINE "tile_id"
                           A    59    .VALUE 1
                           A    60    .CLASS 8
                           A    61    .TYPE 12
                           A    62    .ENDEF
                           A    63    .ENDREC "NONAME0"
                           A    64    .BEGREC "fmt_type",19
                           A    65    .DEFINE "status"
                           A    66    .VALUE 0
                           A    67    .CLASS 8
                           A    68    .TYPE 12
                           A    69    .ENDEF
                           A    70    .DEFINE "flags"
                           A    71    .VALUE 1
                           A    72    .CLASS 8
                           A    73    .TYPE 12
                           A    74    .ENDEF
                           A    75    .DEFINE "size"
                           A    76    .VALUE 2
                           A    77    .CLASS 8
                           A    78    .TYPE 2
                           A    79    .ENDEF
                           A    80    .DEFINE "chr"
                           A    81    .VALUE 3
                           A    82    .CLASS 8
                           A    83    .TYPE 2
                           A    84    .ENDEF
                           A    85    .DEFINE "type"
                           A    86    .VALUE 4
                           A    87    .CLASS 8
                           A    88    .TYPE 2
                           A    89    .ENDEF
                           A    90    .DEFINE "field_width"
                           A    91    .VALUE 5
                           A    92    .CLASS 8
                           A    93    .TYPE 2
                           A    94    .ENDEF
                           A    95    .DEFINE "precision"
                           A    96    .VALUE 6
                           A    97    .CLASS 8
                           A    98    .TYPE 2
                           A    99    .ENDEF
                           A   100    .DEFINE "set_begin"
                           A   101    .VALUE 7
                           A   102    .CLASS 8
                           A   103    .TYPE 34
                           A   104    .ENDEF
                           A   105    .DEFINE "set_end"
                           A   106    .VALUE 10
                           A   107    .CLASS 8
                           A   108    .TYPE 34
                           A   109    .ENDEF
                           A   110    .DEFINE "pad_whole"
                           A   111    .VALUE 13
                           A   112    .CLASS 8
                           A   113    .TYPE 12
                           A   114    .ENDEF
                           A   115    .DEFINE "pad_pre_fract"
                           A   116    .VALUE 14
                           A   117    .CLASS 8
                           A   118    .TYPE 12
                           A   119    .ENDEF
                           A   120    .DEFINE "pad_post_fract"
                           A   121    .VALUE 15
                           A   122    .CLASS 8
                           A   123    .TYPE 12
                           A   124    .ENDEF
                           A   125    .DEFINE "pad_at"
                           A   126    .VALUE 16
                           A   127    .CLASS 8
                           A   128    .TYPE 34
                           A   129    .ENDEF
                           A   130    .ENDREC "fmt_type"
                           A   131    .BEGREC "flt_info",12
                           A   132    .DEFINE "flags"
                           A   133    .VALUE 0
                           A   134    .CLASS 8
                           A   135    .TYPE 12
                           A   136    .ENDEF
                           A   137    .DEFINE "exp"
                           A   138    .VALUE 1
                           A   139    .CLASS 8
                           A   140    .TYPE 2
                           A   141    .ENDEF
                           A   142    .DEFINE "digits"
                           A   143    .VALUE 2
                           A   144    .CLASS 8
                           A   145    .DIM 10
                           A   146    .TYPE 108
                           A   147    .ENDEF
                           A   148    .ENDREC "flt_info"
                           A   149    .BEGREC "NONAME1",6
                           A   150    .DEFINE "quot"
                           A   151    .VALUE 0
                           A   152    .CLASS 8
                           A   153    .TYPE 4
                           A   154    .ENDEF
                           A   155    .DEFINE "rem"
                           A   156    .VALUE 3
                           A   157    .CLASS 8
                           A   158    .TYPE 4
                           A   159    .ENDEF
                           A   160    .ENDREC "NONAME1"
                           A   161    .BEGREC "NONAME2",8
                           A   162    .DEFINE "quot"
                           A   163    .VALUE 0
                           A   164    .CLASS 8
                           A   165    .TYPE 5
                           A   166    .ENDEF
                           A   167    .DEFINE "rem"
                           A   168    .VALUE 4
                           A   169    .CLASS 8
                           A   170    .TYPE 5
                           A   171    .ENDEF
                           A   172    .ENDREC "NONAME2"
                           A   173    .BEGREC "header",6
                           A   174    .DEFINE "s"
                           A   175    .VALUE 0
                           A   176    .CLASS 11
                           A   177    .TAG "NONAME3"
                           A   178    .TYPE 8
                           A   179    .ENDEF
                           A   180    .DEFINE "x"
                           A   181    .VALUE 0
                           A   182    .CLASS 11
                           A   183    .TYPE 2
                           A   184    .ENDEF
                           A   185    .ENDREC "header"
                           A   186    .BEGREC "NONAME3",6
                           A   187    .DEFINE "ptr"
                           A   188    .VALUE 0
                           A   189    .CLASS 8
                           A   190    .TAG "header"
                           A   191    .TYPE 40
                           A   192    .ENDEF
                           A   193    .DEFINE "size"
                           A   194    .VALUE 3
                           A   195    .CLASS 8
                           A   196    .TYPE 14
                           A   197    .ENDEF
                           A   198    .ENDREC "NONAME3"
                           A   199    .BEGREC "NONAME4",562
                           A   200    .DEFINE "fs_type"
                           A   201    .VALUE 0
                           A   202    .CLASS 8
                           A   203    .TYPE 12
                           A   204    .ENDEF
                           A   205    .DEFINE "pdrv"
                           A   206    .VALUE 1
                           A   207    .CLASS 8
                           A   208    .TYPE 12
                           A   209    .ENDEF
                           A   210    .DEFINE "n_fats"
                           A   211    .VALUE 2
                           A   212    .CLASS 8
                           A   213    .TYPE 12
                           A   214    .ENDEF
                           A   215    .DEFINE "wflag"
                           A   216    .VALUE 3
                           A   217    .CLASS 8
                           A   218    .TYPE 12
                           A   219    .ENDEF
                           A   220    .DEFINE "fsi_flag"
                           A   221    .VALUE 4
                           A   222    .CLASS 8
                           A   223    .TYPE 12
                           A   224    .ENDEF
                           A   225    .DEFINE "id"
                           A   226    .VALUE 5
                           A   227    .CLASS 8
                           A   228    .TYPE 13
                           A   229    .ENDEF
                           A   230    .DEFINE "n_rootdir"
                           A   231    .VALUE 7
                           A   232    .CLASS 8
                           A   233    .TYPE 13
                           A   234    .ENDEF
                           A   235    .DEFINE "csize"
                           A   236    .VALUE 9
                           A   237    .CLASS 8
                           A   238    .TYPE 13
                           A   239    .ENDEF
                           A   240    .DEFINE "lfnbuf"
                           A   241    .VALUE 11
                           A   242    .CLASS 8
                           A   243    .TYPE 45
                           A   244    .ENDEF
                           A   245    .DEFINE "last_clst"
                           A   246    .VALUE 14
                           A   247    .CLASS 8
                           A   248    .TYPE 15
                           A   249    .ENDEF
                           A   250    .DEFINE "free_clst"
                           A   251    .VALUE 18
                           A   252    .CLASS 8
                           A   253    .TYPE 15
                           A   254    .ENDEF
                           A   255    .DEFINE "n_fatent"
                           A   256    .VALUE 22
                           A   257    .CLASS 8
                           A   258    .TYPE 15
                           A   259    .ENDEF
                           A   260    .DEFINE "fsize"
                           A   261    .VALUE 26
                           A   262    .CLASS 8
                           A   263    .TYPE 15
                           A   264    .ENDEF
                           A   265    .DEFINE "volbase"
                           A   266    .VALUE 30
                           A   267    .CLASS 8
                           A   268    .TYPE 15
                           A   269    .ENDEF
                           A   270    .DEFINE "fatbase"
                           A   271    .VALUE 34
                           A   272    .CLASS 8
                           A   273    .TYPE 15
                           A   274    .ENDEF
                           A   275    .DEFINE "dirbase"
                           A   276    .VALUE 38
                           A   277    .CLASS 8
                           A   278    .TYPE 15
                           A   279    .ENDEF
                           A   280    .DEFINE "database"
                           A   281    .VALUE 42
                           A   282    .CLASS 8
                           A   283    .TYPE 15
                           A   284    .ENDEF
                           A   285    .DEFINE "winsect"
                           A   286    .VALUE 46
                           A   287    .CLASS 8
                           A   288    .TYPE 15
                           A   289    .ENDEF
                           A   290    .DEFINE "win"
                           A   291    .VALUE 50
                           A   292    .CLASS 8
                           A   293    .DIM 512
                           A   294    .TYPE 108
                           A   295    .ENDEF
                           A   296    .ENDREC "NONAME4"
                           A   297    .BEGREC "NONAME5",15
                           A   298    .DEFINE "fs"
                           A   299    .VALUE 0
                           A   300    .CLASS 8
                           A   301    .TAG "NONAME4"
                           A   302    .TYPE 40
                           A   303    .ENDEF
                           A   304    .DEFINE "id"
                           A   305    .VALUE 3
                           A   306    .CLASS 8
                           A   307    .TYPE 13
                           A   308    .ENDEF
                           A   309    .DEFINE "attr"
                           A   310    .VALUE 5
                           A   311    .CLASS 8
                           A   312    .TYPE 12
                           A   313    .ENDEF
                           A   314    .DEFINE "stat"
                           A   315    .VALUE 6
                           A   316    .CLASS 8
                           A   317    .TYPE 12
                           A   318    .ENDEF
                           A   319    .DEFINE "sclust"
                           A   320    .VALUE 7
                           A   321    .CLASS 8
                           A   322    .TYPE 15
                           A   323    .ENDEF
                           A   324    .DEFINE "objsize"
                           A   325    .VALUE 11
                           A   326    .CLASS 8
                           A   327    .TYPE 15
                           A   328    .ENDEF
                           A   329    .ENDREC "NONAME5"
                           A   330    .BEGREC "NONAME6",548
                           A   331    .DEFINE "obj"
                           A   332    .VALUE 0
                           A   333    .CLASS 8
                           A   334    .TAG "NONAME5"
                           A   335    .TYPE 8
                           A   336    .ENDEF
                           A   337    .DEFINE "flag"
                           A   338    .VALUE 15
                           A   339    .CLASS 8
                           A   340    .TYPE 12
                           A   341    .ENDEF
                           A   342    .DEFINE "err"
                           A   343    .VALUE 16
                           A   344    .CLASS 8
                           A   345    .TYPE 12
                           A   346    .ENDEF
                           A   347    .DEFINE "fptr"
                           A   348    .VALUE 17
                           A   349    .CLASS 8
                           A   350    .TYPE 15
                           A   351    .ENDEF
                           A   352    .DEFINE "clust"
                           A   353    .VALUE 21
                           A   354    .CLASS 8
                           A   355    .TYPE 15
                           A   356    .ENDEF
                           A   357    .DEFINE "sect"
                           A   358    .VALUE 25
                           A   359    .CLASS 8
                           A   360    .TYPE 15
                           A   361    .ENDEF
                           A   362    .DEFINE "dir_sect"
                           A   363    .VALUE 29
                           A   364    .CLASS 8
                           A   365    .TYPE 15
                           A   366    .ENDEF
                           A   367    .DEFINE "dir_ptr"
                           A   368    .VALUE 33
                           A   369    .CLASS 8
                           A   370    .TYPE 44
                           A   371    .ENDEF
                           A   372    .DEFINE "buf"
                           A   373    .VALUE 36
                           A   374    .CLASS 8
                           A   375    .DIM 512
                           A   376    .TYPE 108
                           A   377    .ENDEF
                           A   378    .ENDREC "NONAME6"
                           A   379    .BEGREC "NONAME7",46
                           A   380    .DEFINE "obj"
                           A   381    .VALUE 0
                           A   382    .CLASS 8
                           A   383    .TAG "NONAME5"
                           A   384    .TYPE 8
                           A   385    .ENDEF
                           A   386    .DEFINE "dptr"
                           A   387    .VALUE 15
                           A   388    .CLASS 8
                           A   389    .TYPE 15
                           A   390    .ENDEF
                           A   391    .DEFINE "clust"
                           A   392    .VALUE 19
                           A   393    .CLASS 8
                           A   394    .TYPE 15
                           A   395    .ENDEF
                           A   396    .DEFINE "sect"
                           A   397    .VALUE 23
                           A   398    .CLASS 8
                           A   399    .TYPE 15
                           A   400    .ENDEF
                           A   401    .DEFINE "dir"
                           A   402    .VALUE 27
                           A   403    .CLASS 8
                           A   404    .TYPE 44
                           A   405    .ENDEF
                           A   406    .DEFINE "fn"
                           A   407    .VALUE 30
                           A   408    .CLASS 8
                           A   409    .DIM 12
                           A   410    .TYPE 108
                           A   411    .ENDEF
                           A   412    .DEFINE "blk_ofs"
                           A   413    .VALUE 42
                           A   414    .CLASS 8
                           A   415    .TYPE 15
                           A   416    .ENDEF
                           A   417    .ENDREC "NONAME7"
                           A   418    .BEGREC "NONAME8",278
                           A   419    .DEFINE "fsize"
                           A   420    .VALUE 0
                           A   421    .CLASS 8
                           A   422    .TYPE 15
                           A   423    .ENDEF
                           A   424    .DEFINE "fdate"
                           A   425    .VALUE 4
                           A   426    .CLASS 8
                           A   427    .TYPE 13
                           A   428    .ENDEF
                           A   429    .DEFINE "ftime"
                           A   430    .VALUE 6
                           A   431    .CLASS 8
                           A   432    .TYPE 13
                           A   433    .ENDEF
                           A   434    .DEFINE "fattrib"
                           A   435    .VALUE 8
                           A   436    .CLASS 8
                           A   437    .TYPE 12
                           A   438    .ENDEF
                           A   439    .DEFINE "altname"
                           A   440    .VALUE 9
                           A   441    .CLASS 8
                           A   442    .DIM 13
                           A   443    .TYPE 98
                           A   444    .ENDEF
                           A   445    .DEFINE "fname"
                           A   446    .VALUE 22
                           A   447    .CLASS 8
                           A   448    .DIM 256
                           A   449    .TYPE 98
                           A   450    .ENDEF
                           A   451    .ENDREC "NONAME8"
                           A   452    .BEGREC "NONAME9",12
                           A   453    .DEFINE "fmt"
                           A   454    .VALUE 0
                           A   455    .CLASS 8
                           A   456    .TYPE 12
                           A   457    .ENDEF
                           A   458    .DEFINE "n_fat"
                           A   459    .VALUE 1
                           A   460    .CLASS 8
                           A   461    .TYPE 12
                           A   462    .ENDEF
                           A   463    .DEFINE "align"
                           A   464    .VALUE 2
                           A   465    .CLASS 8
                           A   466    .TYPE 14
                           A   467    .ENDEF
                           A   468    .DEFINE "n_root"
                           A   469    .VALUE 5
                           A   470    .CLASS 8
                           A   471    .TYPE 14
                           A   472    .ENDEF
                           A   473    .DEFINE "au_size"
                           A   474    .VALUE 8
                           A   475    .CLASS 8
                           A   476    .TYPE 15
                           A   477    .ENDEF
                           A   478    .ENDREC "NONAME9"
                           A   479    .BEGREC "NONAME10",6
                           A   480    .DEFINE "name"
                           A   481    .VALUE 0
                           A   482    .CLASS 8
                           A   483    .TYPE 34
                           A   484    .ENDEF
                           A   485    .DEFINE "func"
                           A   486    .VALUE 3
                           A   487    .CLASS 8
                           A   488    .TYPE 548
                           A   489    .ENDEF
                           A   490    .ENDREC "NONAME10"
                           A   491    .BEGREC "NONAME11",4
                           A   492    .DEFINE "dr"
                           A   493    .VALUE 0
                           A   494    .CLASS 8
                           A   495    .TYPE 12
                           A   496    .ENDEF
                           A   497    .DEFINE "ddr"
                           A   498    .VALUE 1
                           A   499    .CLASS 8
                           A   500    .TYPE 12
                           A   501    .ENDEF
                           A   502    .DEFINE "alt1"
                           A   503    .VALUE 2
                           A   504    .CLASS 8
                           A   505    .TYPE 12
                           A   506    .ENDEF
                           A   507    .DEFINE "alt2"
                           A   508    .VALUE 3
                           A   509    .CLASS 8
                           A   510    .TYPE 12
                           A   511    .ENDEF
                           A   512    .ENDREC "NONAME11"
                           A   513    .BEGREC "NONAME12",6
                           A   514    .DEFINE "baudRate"
                           A   515    .VALUE 0
                           A   516    .CLASS 8
                           A   517    .TYPE 4
                           A   518    .ENDEF
                           A   519    .DEFINE "dataBits"
                           A   520    .VALUE 3
                           A   521    .CLASS 8
                           A   522    .TYPE 12
                           A   523    .ENDEF
                           A   524    .DEFINE "stopBits"
                           A   525    .VALUE 4
                           A   526    .CLASS 8
                           A   527    .TYPE 12
                           A   528    .ENDEF
                           A   529    .DEFINE "parity"
                           A   530    .VALUE 5
                           A   531    .CLASS 8
                           A   532    .TYPE 12
                           A   533    .ENDEF
                           A   534    .ENDREC "NONAME12"
                           A   535    	SEGMENT BSS
000000                     A   536    _bitmapbuffer:
000000                     A   537    	DS	1024
                           A   538    .DEFINE "bitmapbuffer"
                           A   539    .ALIAS "_bitmapbuffer"
                           A   540    .CLASS 83
                           A   541    .VALUE _bitmapbuffer
                           A   542    .DIM 256
                           A   543    .TYPE 111
                           A   544    .ENDEF
000400                     A   545    _sprites:
000400                     A   546    	DS	1200
                           A   547    .DEFINE "sprites"
                           A   548    .ALIAS "_sprites"
                           A   549    .CLASS 83
                           A   550    .VALUE _sprites
                           A   551    .DIM 30
                           A   552    .DIM 40
                           A   553    .TYPE 876
                           A   554    .ENDEF
0008B0                     A   555    _currentlevel:
0008B0                     A   556    	DS	1207
                           A   557    .DEFINE "currentlevel"
                           A   558    .ALIAS "_currentlevel"
                           A   559    .CLASS 83
                           A   560    .VALUE _currentlevel
                           A   561    .TAG "sokobanlevel"
                           A   562    .TYPE 8
                           A   563    .ENDEF
000D67                     A   564    _spritenumber:
000D67                     A   565    	DS	1
                           A   566    .DEFINE "spritenumber"
                           A   567    .ALIAS "_spritenumber"
                           A   568    .CLASS 83
                           A   569    .VALUE _spritenumber
                           A   570    .TYPE 12
                           A   571    .ENDEF
                           A   572    	SEGMENT TEXT
000000                     A   573    _wall_data:
000000 808000FF            A   574    	DL	-16744320
000004 808000FF            A   575    	DL	-16744320
000008 808000FF            A   576    	DL	-16744320
00000C 808000FF            A   577    	DL	-16744320
000010 808000FF            A   578    	DL	-16744320
000014 808000FF            A   579    	DL	-16744320
000018 808000FF            A   580    	DL	-16744320
00001C 404040FF            A   581    	DL	-12566464
000020 808000FF            A   582    	DL	-16744320
000024 808000FF            A   583    	DL	-16744320
000028 808000FF            A   584    	DL	-16744320
00002C 808000FF            A   585    	DL	-16744320
000030 808000FF            A   586    	DL	-16744320
000034 808000FF            A   587    	DL	-16744320
000038 808000FF            A   588    	DL	-16744320
00003C 808000FF            A   589    	DL	-16744320
000040 800000FF            A   590    	DL	-16777088
000044 800000FF            A   591    	DL	-16777088
000048 800000FF            A   592    	DL	-16777088
00004C 800000FF            A   593    	DL	-16777088
000050 800000FF            A   594    	DL	-16777088
000054 800000FF            A   595    	DL	-16777088
000058 808080FF            A   596    	DL	-8355712
00005C 404040FF            A   597    	DL	-12566464
000060 808000FF            A   598    	DL	-16744320
000064 800000FF            A   599    	DL	-16777088
000068 800000FF            A   600    	DL	-16777088
00006C 800000FF            A   601    	DL	-16777088
000070 800000FF            A   602    	DL	-16777088
000074 800000FF            A   603    	DL	-16777088
000078 800000FF            A   604    	DL	-16777088
00007C 800000FF            A   605    	DL	-16777088
000080 800000FF            A   606    	DL	-16777088
000084 800000FF            A   607    	DL	-16777088
000088 800000FF            A   608    	DL	-16777088
00008C 800000FF            A   609    	DL	-16777088
000090 800000FF            A   610    	DL	-16777088
000094 800000FF            A   611    	DL	-16777088
000098 808080FF            A   612    	DL	-8355712
00009C 404040FF            A   613    	DL	-12566464
0000A0 808000FF            A   614    	DL	-16744320
0000A4 800000FF            A   615    	DL	-16777088
0000A8 808080FF            A   616    	DL	-8355712
0000AC 800000FF            A   617    	DL	-16777088
0000B0 800000FF            A   618    	DL	-16777088
0000B4 800000FF            A   619    	DL	-16777088
0000B8 800000FF            A   620    	DL	-16777088
0000BC 800000FF            A   621    	DL	-16777088
0000C0 800000FF            A   622    	DL	-16777088
0000C4 800000FF            A   623    	DL	-16777088
0000C8 808080FF            A   624    	DL	-8355712
0000CC 808080FF            A   625    	DL	-8355712
0000D0 800000FF            A   626    	DL	-16777088
0000D4 800000FF            A   627    	DL	-16777088
0000D8 808080FF            A   628    	DL	-8355712
0000DC 404040FF            A   629    	DL	-12566464
0000E0 808000FF            A   630    	DL	-16744320
0000E4 800000FF            A   631    	DL	-16777088
0000E8 800000FF            A   632    	DL	-16777088
0000EC 800000FF            A   633    	DL	-16777088
0000F0 800000FF            A   634    	DL	-16777088
0000F4 800000FF            A   635    	DL	-16777088
0000F8 800000FF            A   636    	DL	-16777088
0000FC 800000FF            A   637    	DL	-16777088
000100 800000FF            A   638    	DL	-16777088
000104 800000FF            A   639    	DL	-16777088
000108 800000FF            A   640    	DL	-16777088
00010C 800000FF            A   641    	DL	-16777088
000110 800000FF            A   642    	DL	-16777088
000114 800000FF            A   643    	DL	-16777088
000118 808080FF            A   644    	DL	-8355712
00011C 404040FF            A   645    	DL	-12566464
000120 808000FF            A   646    	DL	-16744320
000124 800000FF            A   647    	DL	-16777088
000128 800000FF            A   648    	DL	-16777088
00012C 800000FF            A   649    	DL	-16777088
000130 800000FF            A   650    	DL	-16777088
000134 800000FF            A   651    	DL	-16777088
000138 800000FF            A   652    	DL	-16777088
00013C 800000FF            A   653    	DL	-16777088
000140 800000FF            A   654    	DL	-16777088
000144 800000FF            A   655    	DL	-16777088
000148 800000FF            A   656    	DL	-16777088
00014C 800000FF            A   657    	DL	-16777088
000150 800000FF            A   658    	DL	-16777088
000154 800000FF            A   659    	DL	-16777088
000158 808080FF            A   660    	DL	-8355712
00015C 404040FF            A   661    	DL	-12566464
000160 808000FF            A   662    	DL	-16744320
000164 800000FF            A   663    	DL	-16777088
000168 800000FF            A   664    	DL	-16777088
00016C 800000FF            A   665    	DL	-16777088
000170 800000FF            A   666    	DL	-16777088
000174 808080FF            A   667    	DL	-8355712
000178 808080FF            A   668    	DL	-8355712
00017C 800000FF            A   669    	DL	-16777088
000180 808080FF            A   670    	DL	-8355712
000184 808080FF            A   671    	DL	-8355712
000188 808080FF            A   672    	DL	-8355712
00018C 808080FF            A   673    	DL	-8355712
000190 808080FF            A   674    	DL	-8355712
000194 808080FF            A   675    	DL	-8355712
000198 808080FF            A   676    	DL	-8355712
00019C 404040FF            A   677    	DL	-12566464
0001A0 808000FF            A   678    	DL	-16744320
0001A4 808080FF            A   679    	DL	-8355712
0001A8 808080FF            A   680    	DL	-8355712
0001AC 808080FF            A   681    	DL	-8355712
0001B0 808080FF            A   682    	DL	-8355712
0001B4 808080FF            A   683    	DL	-8355712
0001B8 808080FF            A   684    	DL	-8355712
0001BC 808080FF            A   685    	DL	-8355712
0001C0 404040FF            A   686    	DL	-12566464
0001C4 404040FF            A   687    	DL	-12566464
0001C8 404040FF            A   688    	DL	-12566464
0001CC 404040FF            A   689    	DL	-12566464
0001D0 404040FF            A   690    	DL	-12566464
0001D4 404040FF            A   691    	DL	-12566464
0001D8 404040FF            A   692    	DL	-12566464
0001DC 404040FF            A   693    	DL	-12566464
0001E0 404040FF            A   694    	DL	-12566464
0001E4 404040FF            A   695    	DL	-12566464
0001E8 404040FF            A   696    	DL	-12566464
0001EC 404040FF            A   697    	DL	-12566464
0001F0 404040FF            A   698    	DL	-12566464
0001F4 404040FF            A   699    	DL	-12566464
0001F8 404040FF            A   700    	DL	-12566464
0001FC 404040FF            A   701    	DL	-12566464
000200 404040FF            A   702    	DL	-12566464
000204 808000FF            A   703    	DL	-16744320
000208 808000FF            A   704    	DL	-16744320
00020C 808000FF            A   705    	DL	-16744320
000210 808000FF            A   706    	DL	-16744320
000214 808000FF            A   707    	DL	-16744320
000218 808000FF            A   708    	DL	-16744320
00021C 808000FF            A   709    	DL	-16744320
000220 808000FF            A   710    	DL	-16744320
000224 808000FF            A   711    	DL	-16744320
000228 808000FF            A   712    	DL	-16744320
00022C 808000FF            A   713    	DL	-16744320
000230 808000FF            A   714    	DL	-16744320
000234 808000FF            A   715    	DL	-16744320
000238 808000FF            A   716    	DL	-16744320
00023C 808000FF            A   717    	DL	-16744320
000240 404040FF            A   718    	DL	-12566464
000244 808000FF            A   719    	DL	-16744320
000248 808000FF            A   720    	DL	-16744320
00024C 800000FF            A   721    	DL	-16777088
000250 808080FF            A   722    	DL	-8355712
000254 808080FF            A   723    	DL	-8355712
000258 800000FF            A   724    	DL	-16777088
00025C 800000FF            A   725    	DL	-16777088
000260 800000FF            A   726    	DL	-16777088
000264 800000FF            A   727    	DL	-16777088
000268 800000FF            A   728    	DL	-16777088
00026C 800000FF            A   729    	DL	-16777088
000270 800000FF            A   730    	DL	-16777088
000274 800000FF            A   731    	DL	-16777088
000278 800000FF            A   732    	DL	-16777088
00027C 808080FF            A   733    	DL	-8355712
000280 404040FF            A   734    	DL	-12566464
000284 808000FF            A   735    	DL	-16744320
000288 800000FF            A   736    	DL	-16777088
00028C 800000FF            A   737    	DL	-16777088
000290 800000FF            A   738    	DL	-16777088
000294 800000FF            A   739    	DL	-16777088
000298 800000FF            A   740    	DL	-16777088
00029C 800000FF            A   741    	DL	-16777088
0002A0 800000FF            A   742    	DL	-16777088
0002A4 800000FF            A   743    	DL	-16777088
0002A8 800000FF            A   744    	DL	-16777088
0002AC 800000FF            A   745    	DL	-16777088
0002B0 800000FF            A   746    	DL	-16777088
0002B4 800000FF            A   747    	DL	-16777088
0002B8 800000FF            A   748    	DL	-16777088
0002BC 808080FF            A   749    	DL	-8355712
0002C0 404040FF            A   750    	DL	-12566464
0002C4 808000FF            A   751    	DL	-16744320
0002C8 800000FF            A   752    	DL	-16777088
0002CC 800000FF            A   753    	DL	-16777088
0002D0 800000FF            A   754    	DL	-16777088
0002D4 800000FF            A   755    	DL	-16777088
0002D8 808080FF            A   756    	DL	-8355712
0002DC 808080FF            A   757    	DL	-8355712
0002E0 800000FF            A   758    	DL	-16777088
0002E4 800000FF            A   759    	DL	-16777088
0002E8 800000FF            A   760    	DL	-16777088
0002EC 800000FF            A   761    	DL	-16777088
0002F0 800000FF            A   762    	DL	-16777088
0002F4 800000FF            A   763    	DL	-16777088
0002F8 800000FF            A   764    	DL	-16777088
0002FC 808080FF            A   765    	DL	-8355712
000300 404040FF            A   766    	DL	-12566464
000304 808000FF            A   767    	DL	-16744320
000308 800000FF            A   768    	DL	-16777088
00030C 800000FF            A   769    	DL	-16777088
000310 800000FF            A   770    	DL	-16777088
000314 800000FF            A   771    	DL	-16777088
000318 800000FF            A   772    	DL	-16777088
00031C 800000FF            A   773    	DL	-16777088
000320 800000FF            A   774    	DL	-16777088
000324 800000FF            A   775    	DL	-16777088
000328 800000FF            A   776    	DL	-16777088
00032C 800000FF            A   777    	DL	-16777088
000330 800000FF            A   778    	DL	-16777088
000334 808080FF            A   779    	DL	-8355712
000338 800000FF            A   780    	DL	-16777088
00033C 808080FF            A   781    	DL	-8355712
000340 404040FF            A   782    	DL	-12566464
000344 808000FF            A   783    	DL	-16744320
000348 800000FF            A   784    	DL	-16777088
00034C 800000FF            A   785    	DL	-16777088
000350 800000FF            A   786    	DL	-16777088
000354 800000FF            A   787    	DL	-16777088
000358 800000FF            A   788    	DL	-16777088
00035C 800000FF            A   789    	DL	-16777088
000360 800000FF            A   790    	DL	-16777088
000364 800000FF            A   791    	DL	-16777088
000368 800000FF            A   792    	DL	-16777088
00036C 800000FF            A   793    	DL	-16777088
000370 800000FF            A   794    	DL	-16777088
000374 800000FF            A   795    	DL	-16777088
000378 800000FF            A   796    	DL	-16777088
00037C 808080FF            A   797    	DL	-8355712
000380 404040FF            A   798    	DL	-12566464
000384 808000FF            A   799    	DL	-16744320
000388 808080FF            A   800    	DL	-8355712
00038C 808080FF            A   801    	DL	-8355712
000390 808080FF            A   802    	DL	-8355712
000394 808080FF            A   803    	DL	-8355712
000398 808080FF            A   804    	DL	-8355712
00039C 808080FF            A   805    	DL	-8355712
0003A0 808080FF            A   806    	DL	-8355712
0003A4 808080FF            A   807    	DL	-8355712
0003A8 808080FF            A   808    	DL	-8355712
0003AC 808080FF            A   809    	DL	-8355712
0003B0 808080FF            A   810    	DL	-8355712
0003B4 808080FF            A   811    	DL	-8355712
0003B8 808080FF            A   812    	DL	-8355712
0003BC 808080FF            A   813    	DL	-8355712
0003C0 404040FF            A   814    	DL	-12566464
0003C4 404040FF            A   815    	DL	-12566464
0003C8 404040FF            A   816    	DL	-12566464
0003CC 404040FF            A   817    	DL	-12566464
0003D0 404040FF            A   818    	DL	-12566464
0003D4 404040FF            A   819    	DL	-12566464
0003D8 404040FF            A   820    	DL	-12566464
0003DC 404040FF            A   821    	DL	-12566464
0003E0 404040FF            A   822    	DL	-12566464
0003E4 404040FF            A   823    	DL	-12566464
0003E8 404040FF            A   824    	DL	-12566464
0003EC 404040FF            A   825    	DL	-12566464
0003F0 404040FF            A   826    	DL	-12566464
0003F4 404040FF            A   827    	DL	-12566464
0003F8 404040FF            A   828    	DL	-12566464
0003FC 404040FF            A   829    	DL	-12566464
                           A   830    .DEFINE "wall_data"
                           A   831    .ALIAS "_wall_data"
                           A   832    .CLASS 69
                           A   833    .VALUE _wall_data
                           A   834    .DIM 1
                           A   835    .DIM 256
                           A   836    .TYPE 879
                           A   837    .ENDEF
000400                     A   838    _player_data:
000400 00000000            A   839    	DL	0
000404 00000000            A   840    	DL	0
000408 00000000            A   841    	DL	0
00040C 00000000            A   842    	DL	0
000410 00000000            A   843    	DL	0
000414 000000FF            A   844    	DL	-16777216
000418 000000FF            A   845    	DL	-16777216
00041C 000000FF            A   846    	DL	-16777216
000420 000000FF            A   847    	DL	-16777216
000424 404040FF            A   848    	DL	-12566464
000428 00000000            A   849    	DL	0
00042C 00000000            A   850    	DL	0
000430 00000000            A   851    	DL	0
000434 00000000            A   852    	DL	0
000438 00000000            A   853    	DL	0
00043C 00000000            A   854    	DL	0
000440 00000000            A   855    	DL	0
000444 00000000            A   856    	DL	0
000448 00000000            A   857    	DL	0
00044C 00000000            A   858    	DL	0
000450 000000FF            A   859    	DL	-16777216
000454 000000FF            A   860    	DL	-16777216
000458 000000FF            A   861    	DL	-16777216
00045C 000000FF            A   862    	DL	-16777216
000460 000000FF            A   863    	DL	-16777216
000464 000000FF            A   864    	DL	-16777216
000468 000000FF            A   865    	DL	-16777216
00046C 00000000            A   866    	DL	0
000470 00000000            A   867    	DL	0
000474 00000000            A   868    	DL	0
000478 00000000            A   869    	DL	0
00047C 00000000            A   870    	DL	0
000480 00000000            A   871    	DL	0
000484 00000000            A   872    	DL	0
000488 00000000            A   873    	DL	0
00048C 404040FF            A   874    	DL	-12566464
000490 000000FF            A   875    	DL	-16777216
000494 404040FF            A   876    	DL	-12566464
000498 808000FF            A   877    	DL	-16744320
00049C 808000FF            A   878    	DL	-16744320
0004A0 808000FF            A   879    	DL	-16744320
0004A4 404040FF            A   880    	DL	-12566464
0004A8 000000FF            A   881    	DL	-16777216
0004AC 404040FF            A   882    	DL	-12566464
0004B0 00000000            A   883    	DL	0
0004B4 00000000            A   884    	DL	0
0004B8 00000000            A   885    	DL	0
0004BC 00000000            A   886    	DL	0
0004C0 00000000            A   887    	DL	0
0004C4 00000000            A   888    	DL	0
0004C8 00000000            A   889    	DL	0
0004CC 000000FF            A   890    	DL	-16777216
0004D0 404040FF            A   891    	DL	-12566464
0004D4 808000FF            A   892    	DL	-16744320
0004D8 808000FF            A   893    	DL	-16744320
0004DC 808000FF            A   894    	DL	-16744320
0004E0 808000FF            A   895    	DL	-16744320
0004E4 808000FF            A   896    	DL	-16744320
0004E8 404040FF            A   897    	DL	-12566464
0004EC 000000FF            A   898    	DL	-16777216
0004F0 00000000            A   899    	DL	0
0004F4 00000000            A   900    	DL	0
0004F8 00000000            A   901    	DL	0
0004FC 00000000            A   902    	DL	0
000500 00000000            A   903    	DL	0
000504 00000000            A   904    	DL	0
000508 00000000            A   905    	DL	0
00050C 404040FF            A   906    	DL	-12566464
000510 808080FF            A   907    	DL	-8355712
000514 000000FF            A   908    	DL	-16777216
000518 000000FF            A   909    	DL	-16777216
00051C 808000FF            A   910    	DL	-16744320
000520 000000FF            A   911    	DL	-16777216
000524 000000FF            A   912    	DL	-16777216
000528 808080FF            A   913    	DL	-8355712
00052C 404040FF            A   914    	DL	-12566464
000530 00000000            A   915    	DL	0
000534 00000000            A   916    	DL	0
000538 00000000            A   917    	DL	0
00053C 00000000            A   918    	DL	0
000540 00000000            A   919    	DL	0
000544 00000000            A   920    	DL	0
000548 00000000            A   921    	DL	0
00054C 00000000            A   922    	DL	0
000550 000000FF            A   923    	DL	-16777216
000554 808000FF            A   924    	DL	-16744320
000558 808000FF            A   925    	DL	-16744320
00055C 808000FF            A   926    	DL	-16744320
000560 808000FF            A   927    	DL	-16744320
000564 808000FF            A   928    	DL	-16744320
000568 000000FF            A   929    	DL	-16777216
00056C 00000000            A   930    	DL	0
000570 00000000            A   931    	DL	0
000574 00000000            A   932    	DL	0
000578 00000000            A   933    	DL	0
00057C 00000000            A   934    	DL	0
000580 00000000            A   935    	DL	0
000584 00000000            A   936    	DL	0
000588 00000000            A   937    	DL	0
00058C 00000000            A   938    	DL	0
000590 00000000            A   939    	DL	0
000594 000000FF            A   940    	DL	-16777216
000598 808080FF            A   941    	DL	-8355712
00059C 808080FF            A   942    	DL	-8355712
0005A0 808080FF            A   943    	DL	-8355712
0005A4 000000FF            A   944    	DL	-16777216
0005A8 00000000            A   945    	DL	0
0005AC 00000000            A   946    	DL	0
0005B0 00000000            A   947    	DL	0
0005B4 00000000            A   948    	DL	0
0005B8 00000000            A   949    	DL	0
0005BC 00000000            A   950    	DL	0
0005C0 00000000            A   951    	DL	0
0005C4 00000000            A   952    	DL	0
0005C8 00000000            A   953    	DL	0
0005CC 00000000            A   954    	DL	0
0005D0 000000FF            A   955    	DL	-16777216
0005D4 800000FF            A   956    	DL	-16777088
0005D8 000000FF            A   957    	DL	-16777216
0005DC 000000FF            A   958    	DL	-16777216
0005E0 000000FF            A   959    	DL	-16777216
0005E4 800000FF            A   960    	DL	-16777088
0005E8 000000FF            A   961    	DL	-16777216
0005EC 00000000            A   962    	DL	0
0005F0 00000000            A   963    	DL	0
0005F4 00000000            A   964    	DL	0
0005F8 00000000            A   965    	DL	0
0005FC 00000000            A   966    	DL	0
000600 00000000            A   967    	DL	0
000604 00000000            A   968    	DL	0
000608 00000000            A   969    	DL	0
00060C 000000FF            A   970    	DL	-16777216
000610 800000FF            A   971    	DL	-16777088
000614 FF0000FF            A   972    	DL	-16776961
000618 FF0000FF            A   973    	DL	-16776961
00061C FF0000FF            A   974    	DL	-16776961
000620 FF0000FF            A   975    	DL	-16776961
000624 FF0000FF            A   976    	DL	-16776961
000628 800000FF            A   977    	DL	-16777088
00062C 000000FF            A   978    	DL	-16777216
000630 00000000            A   979    	DL	0
000634 00000000            A   980    	DL	0
000638 00000000            A   981    	DL	0
00063C 00000000            A   982    	DL	0
000640 00000000            A   983    	DL	0
000644 00000000            A   984    	DL	0
000648 000000FF            A   985    	DL	-16777216
00064C FF0000FF            A   986    	DL	-16776961
000650 FF0000FF            A   987    	DL	-16776961
000654 FF0000FF            A   988    	DL	-16776961
000658 FF0000FF            A   989    	DL	-16776961
00065C FF0000FF            A   990    	DL	-16776961
000660 FF0000FF            A   991    	DL	-16776961
000664 FF0000FF            A   992    	DL	-16776961
000668 FF0000FF            A   993    	DL	-16776961
00066C FF0000FF            A   994    	DL	-16776961
000670 000000FF            A   995    	DL	-16777216
000674 00000000            A   996    	DL	0
000678 00000000            A   997    	DL	0
00067C 00000000            A   998    	DL	0
000680 00000000            A   999    	DL	0
000684 00000000            A  1000    	DL	0
000688 404040FF            A  1001    	DL	-12566464
00068C 800000FF            A  1002    	DL	-16777088
000690 FF0000FF            A  1003    	DL	-16776961
000694 800000FF            A  1004    	DL	-16777088
000698 FF0000FF            A  1005    	DL	-16776961
00069C FF0000FF            A  1006    	DL	-16776961
0006A0 FF0000FF            A  1007    	DL	-16776961
0006A4 800000FF            A  1008    	DL	-16777088
0006A8 FF0000FF            A  1009    	DL	-16776961
0006AC 800000FF            A  1010    	DL	-16777088
0006B0 404040FF            A  1011    	DL	-12566464
0006B4 00000000            A  1012    	DL	0
0006B8 00000000            A  1013    	DL	0
0006BC 00000000            A  1014    	DL	0
0006C0 00000000            A  1015    	DL	0
0006C4 000000FF            A  1016    	DL	-16777216
0006C8 808000FF            A  1017    	DL	-16744320
0006CC 808000FF            A  1018    	DL	-16744320
0006D0 800000FF            A  1019    	DL	-16777088
0006D4 800000FF            A  1020    	DL	-16777088
0006D8 FF0000FF            A  1021    	DL	-16776961
0006DC FF0000FF            A  1022    	DL	-16776961
0006E0 FF0000FF            A  1023    	DL	-16776961
0006E4 800000FF            A  1024    	DL	-16777088
0006E8 800000FF            A  1025    	DL	-16777088
0006EC 808000FF            A  1026    	DL	-16744320
0006F0 808000FF            A  1027    	DL	-16744320
0006F4 000000FF            A  1028    	DL	-16777216
0006F8 00000000            A  1029    	DL	0
0006FC 00000000            A  1030    	DL	0
000700 00000000            A  1031    	DL	0
000704 000000FF            A  1032    	DL	-16777216
000708 808000FF            A  1033    	DL	-16744320
00070C 808000FF            A  1034    	DL	-16744320
000710 000000FF            A  1035    	DL	-16777216
000714 000080FF            A  1036    	DL	-8388608
000718 000080FF            A  1037    	DL	-8388608
00071C 000080FF            A  1038    	DL	-8388608
000720 000080FF            A  1039    	DL	-8388608
000724 000080FF            A  1040    	DL	-8388608
000728 000000FF            A  1041    	DL	-16777216
00072C 808000FF            A  1042    	DL	-16744320
000730 808000FF            A  1043    	DL	-16744320
000734 000000FF            A  1044    	DL	-16777216
000738 00000000            A  1045    	DL	0
00073C 00000000            A  1046    	DL	0
000740 00000000            A  1047    	DL	0
000744 00000000            A  1048    	DL	0
000748 000000FF            A  1049    	DL	-16777216
00074C 000000FF            A  1050    	DL	-16777216
000750 000080FF            A  1051    	DL	-8388608
000754 0000FFFF            A  1052    	DL	-65536
000758 0000FFFF            A  1053    	DL	-65536
00075C 0000FFFF            A  1054    	DL	-65536
000760 0000FFFF            A  1055    	DL	-65536
000764 0000FFFF            A  1056    	DL	-65536
000768 000080FF            A  1057    	DL	-8388608
00076C 000000FF            A  1058    	DL	-16777216
000770 000000FF            A  1059    	DL	-16777216
000774 00000000            A  1060    	DL	0
000778 00000000            A  1061    	DL	0
00077C 00000000            A  1062    	DL	0
000780 00000000            A  1063    	DL	0
000784 00000000            A  1064    	DL	0
000788 00000000            A  1065    	DL	0
00078C 000000FF            A  1066    	DL	-16777216
000790 000080FF            A  1067    	DL	-8388608
000794 0000FFFF            A  1068    	DL	-65536
000798 0000FFFF            A  1069    	DL	-65536
00079C 000080FF            A  1070    	DL	-8388608
0007A0 0000FFFF            A  1071    	DL	-65536
0007A4 0000FFFF            A  1072    	DL	-65536
0007A8 000080FF            A  1073    	DL	-8388608
0007AC 000000FF            A  1074    	DL	-16777216
0007B0 00000000            A  1075    	DL	0
0007B4 00000000            A  1076    	DL	0
0007B8 00000000            A  1077    	DL	0
0007BC 00000000            A  1078    	DL	0
0007C0 00000000            A  1079    	DL	0
0007C4 00000000            A  1080    	DL	0
0007C8 00000000            A  1081    	DL	0
0007CC 000000FF            A  1082    	DL	-16777216
0007D0 0000FFFF            A  1083    	DL	-65536
0007D4 0000FFFF            A  1084    	DL	-65536
0007D8 000080FF            A  1085    	DL	-8388608
0007DC 000000FF            A  1086    	DL	-16777216
0007E0 0000FFFF            A  1087    	DL	-65536
0007E4 0000FFFF            A  1088    	DL	-65536
0007E8 0000FFFF            A  1089    	DL	-65536
0007EC 000000FF            A  1090    	DL	-16777216
0007F0 00000000            A  1091    	DL	0
0007F4 00000000            A  1092    	DL	0
0007F8 00000000            A  1093    	DL	0
0007FC 00000000            A  1094    	DL	0
                           A  1095    .DEFINE "player_data"
                           A  1096    .ALIAS "_player_data"
                           A  1097    .CLASS 69
                           A  1098    .VALUE _player_data
                           A  1099    .DIM 1
                           A  1100    .DIM 256
                           A  1101    .TYPE 879
                           A  1102    .ENDEF
000800                     A  1103    _goal_data:
000800 00000000            A  1104    	DL	0
000804 00000000            A  1105    	DL	0
000808 00000000            A  1106    	DL	0
00080C 00000000            A  1107    	DL	0
000810 00000000            A  1108    	DL	0
000814 00000000            A  1109    	DL	0
000818 00000000            A  1110    	DL	0
00081C 00000000            A  1111    	DL	0
000820 00000000            A  1112    	DL	0
000824 00000000            A  1113    	DL	0
000828 00000000            A  1114    	DL	0
00082C 00000000            A  1115    	DL	0
000830 00000000            A  1116    	DL	0
000834 00000000            A  1117    	DL	0
000838 00000000            A  1118    	DL	0
00083C 00000000            A  1119    	DL	0
000840 00000000            A  1120    	DL	0
000844 00000000            A  1121    	DL	0
000848 00000000            A  1122    	DL	0
00084C 00000000            A  1123    	DL	0
000850 00000000            A  1124    	DL	0
000854 00000000            A  1125    	DL	0
000858 00000000            A  1126    	DL	0
00085C 00000000            A  1127    	DL	0
000860 00000000            A  1128    	DL	0
000864 00000000            A  1129    	DL	0
000868 00000000            A  1130    	DL	0
00086C 00000000            A  1131    	DL	0
000870 00000000            A  1132    	DL	0
000874 00000000            A  1133    	DL	0
000878 00000000            A  1134    	DL	0
00087C 00000000            A  1135    	DL	0
000880 00000000            A  1136    	DL	0
000884 00000000            A  1137    	DL	0
000888 00000000            A  1138    	DL	0
00088C 00000000            A  1139    	DL	0
000890 00000000            A  1140    	DL	0
000894 00000000            A  1141    	DL	0
000898 00000000            A  1142    	DL	0
00089C 00000000            A  1143    	DL	0
0008A0 00000000            A  1144    	DL	0
0008A4 00000000            A  1145    	DL	0
0008A8 00000000            A  1146    	DL	0
0008AC 00000000            A  1147    	DL	0
0008B0 00000000            A  1148    	DL	0
0008B4 00000000            A  1149    	DL	0
0008B8 00000000            A  1150    	DL	0
0008BC 00000000            A  1151    	DL	0
0008C0 00000000            A  1152    	DL	0
0008C4 00000000            A  1153    	DL	0
0008C8 00000000            A  1154    	DL	0
0008CC 00000000            A  1155    	DL	0
0008D0 00000000            A  1156    	DL	0
0008D4 00000000            A  1157    	DL	0
0008D8 008000FF            A  1158    	DL	-16744448
0008DC 00000000            A  1159    	DL	0
0008E0 00000000            A  1160    	DL	0
0008E4 008000FF            A  1161    	DL	-16744448
0008E8 00000000            A  1162    	DL	0
0008EC 00000000            A  1163    	DL	0
0008F0 00000000            A  1164    	DL	0
0008F4 00000000            A  1165    	DL	0
0008F8 00000000            A  1166    	DL	0
0008FC 00000000            A  1167    	DL	0
000900 00000000            A  1168    	DL	0
000904 00000000            A  1169    	DL	0
000908 00000000            A  1170    	DL	0
00090C 00000000            A  1171    	DL	0
000910 00000000            A  1172    	DL	0
000914 00000000            A  1173    	DL	0
000918 00000000            A  1174    	DL	0
00091C 008000FF            A  1175    	DL	-16744448
000920 008000FF            A  1176    	DL	-16744448
000924 00000000            A  1177    	DL	0
000928 00000000            A  1178    	DL	0
00092C 00000000            A  1179    	DL	0
000930 00000000            A  1180    	DL	0
000934 00000000            A  1181    	DL	0
000938 00000000            A  1182    	DL	0
00093C 00000000            A  1183    	DL	0
000940 00000000            A  1184    	DL	0
000944 00000000            A  1185    	DL	0
000948 00000000            A  1186    	DL	0
00094C 00000000            A  1187    	DL	0
000950 00000000            A  1188    	DL	0
000954 00000000            A  1189    	DL	0
000958 00000000            A  1190    	DL	0
00095C 00000000            A  1191    	DL	0
000960 00000000            A  1192    	DL	0
000964 00000000            A  1193    	DL	0
000968 00000000            A  1194    	DL	0
00096C 00000000            A  1195    	DL	0
000970 00000000            A  1196    	DL	0
000974 00000000            A  1197    	DL	0
000978 00000000            A  1198    	DL	0
00097C 00000000            A  1199    	DL	0
000980 00000000            A  1200    	DL	0
000984 00000000            A  1201    	DL	0
000988 00000000            A  1202    	DL	0
00098C 008000FF            A  1203    	DL	-16744448
000990 00000000            A  1204    	DL	0
000994 00000000            A  1205    	DL	0
000998 00000000            A  1206    	DL	0
00099C 00000000            A  1207    	DL	0
0009A0 00000000            A  1208    	DL	0
0009A4 00000000            A  1209    	DL	0
0009A8 00000000            A  1210    	DL	0
0009AC 00000000            A  1211    	DL	0
0009B0 008000FF            A  1212    	DL	-16744448
0009B4 00000000            A  1213    	DL	0
0009B8 00000000            A  1214    	DL	0
0009BC 00000000            A  1215    	DL	0
0009C0 00000000            A  1216    	DL	0
0009C4 00000000            A  1217    	DL	0
0009C8 00000000            A  1218    	DL	0
0009CC 00000000            A  1219    	DL	0
0009D0 008000FF            A  1220    	DL	-16744448
0009D4 00000000            A  1221    	DL	0
0009D8 00000000            A  1222    	DL	0
0009DC 00FF00FF            A  1223    	DL	-16711936
0009E0 00FF00FF            A  1224    	DL	-16711936
0009E4 00000000            A  1225    	DL	0
0009E8 00000000            A  1226    	DL	0
0009EC 008000FF            A  1227    	DL	-16744448
0009F0 00000000            A  1228    	DL	0
0009F4 00000000            A  1229    	DL	0
0009F8 00000000            A  1230    	DL	0
0009FC 00000000            A  1231    	DL	0
000A00 00000000            A  1232    	DL	0
000A04 00000000            A  1233    	DL	0
000A08 00000000            A  1234    	DL	0
000A0C 00000000            A  1235    	DL	0
000A10 008000FF            A  1236    	DL	-16744448
000A14 00000000            A  1237    	DL	0
000A18 00000000            A  1238    	DL	0
000A1C 00FF00FF            A  1239    	DL	-16711936
000A20 00FF00FF            A  1240    	DL	-16711936
000A24 00000000            A  1241    	DL	0
000A28 00000000            A  1242    	DL	0
000A2C 008000FF            A  1243    	DL	-16744448
000A30 00000000            A  1244    	DL	0
000A34 00000000            A  1245    	DL	0
000A38 00000000            A  1246    	DL	0
000A3C 00000000            A  1247    	DL	0
000A40 00000000            A  1248    	DL	0
000A44 00000000            A  1249    	DL	0
000A48 00000000            A  1250    	DL	0
000A4C 008000FF            A  1251    	DL	-16744448
000A50 00000000            A  1252    	DL	0
000A54 00000000            A  1253    	DL	0
000A58 00000000            A  1254    	DL	0
000A5C 00000000            A  1255    	DL	0
000A60 00000000            A  1256    	DL	0
000A64 00000000            A  1257    	DL	0
000A68 00000000            A  1258    	DL	0
000A6C 00000000            A  1259    	DL	0
000A70 008000FF            A  1260    	DL	-16744448
000A74 00000000            A  1261    	DL	0
000A78 00000000            A  1262    	DL	0
000A7C 00000000            A  1263    	DL	0
000A80 00000000            A  1264    	DL	0
000A84 00000000            A  1265    	DL	0
000A88 00000000            A  1266    	DL	0
000A8C 00000000            A  1267    	DL	0
000A90 00000000            A  1268    	DL	0
000A94 00000000            A  1269    	DL	0
000A98 00000000            A  1270    	DL	0
000A9C 00000000            A  1271    	DL	0
000AA0 00000000            A  1272    	DL	0
000AA4 00000000            A  1273    	DL	0
000AA8 00000000            A  1274    	DL	0
000AAC 00000000            A  1275    	DL	0
000AB0 00000000            A  1276    	DL	0
000AB4 00000000            A  1277    	DL	0
000AB8 00000000            A  1278    	DL	0
000ABC 00000000            A  1279    	DL	0
000AC0 00000000            A  1280    	DL	0
000AC4 00000000            A  1281    	DL	0
000AC8 00000000            A  1282    	DL	0
000ACC 00000000            A  1283    	DL	0
000AD0 00000000            A  1284    	DL	0
000AD4 00000000            A  1285    	DL	0
000AD8 00000000            A  1286    	DL	0
000ADC 008000FF            A  1287    	DL	-16744448
000AE0 008000FF            A  1288    	DL	-16744448
000AE4 00000000            A  1289    	DL	0
000AE8 00000000            A  1290    	DL	0
000AEC 00000000            A  1291    	DL	0
000AF0 00000000            A  1292    	DL	0
000AF4 00000000            A  1293    	DL	0
000AF8 00000000            A  1294    	DL	0
000AFC 00000000            A  1295    	DL	0
000B00 00000000            A  1296    	DL	0
000B04 00000000            A  1297    	DL	0
000B08 00000000            A  1298    	DL	0
000B0C 00000000            A  1299    	DL	0
000B10 00000000            A  1300    	DL	0
000B14 00000000            A  1301    	DL	0
000B18 008000FF            A  1302    	DL	-16744448
000B1C 00000000            A  1303    	DL	0
000B20 00000000            A  1304    	DL	0
000B24 008000FF            A  1305    	DL	-16744448
000B28 00000000            A  1306    	DL	0
000B2C 00000000            A  1307    	DL	0
000B30 00000000            A  1308    	DL	0
000B34 00000000            A  1309    	DL	0
000B38 00000000            A  1310    	DL	0
000B3C 00000000            A  1311    	DL	0
000B40 00000000            A  1312    	DL	0
000B44 00000000            A  1313    	DL	0
000B48 00000000            A  1314    	DL	0
000B4C 00000000            A  1315    	DL	0
000B50 00000000            A  1316    	DL	0
000B54 00000000            A  1317    	DL	0
000B58 00000000            A  1318    	DL	0
000B5C 00000000            A  1319    	DL	0
000B60 00000000            A  1320    	DL	0
000B64 00000000            A  1321    	DL	0
000B68 00000000            A  1322    	DL	0
000B6C 00000000            A  1323    	DL	0
000B70 00000000            A  1324    	DL	0
000B74 00000000            A  1325    	DL	0
000B78 00000000            A  1326    	DL	0
000B7C 00000000            A  1327    	DL	0
000B80 00000000            A  1328    	DL	0
000B84 00000000            A  1329    	DL	0
000B88 00000000            A  1330    	DL	0
000B8C 00000000            A  1331    	DL	0
000B90 00000000            A  1332    	DL	0
000B94 00000000            A  1333    	DL	0
000B98 00000000            A  1334    	DL	0
000B9C 00000000            A  1335    	DL	0
000BA0 00000000            A  1336    	DL	0
000BA4 00000000            A  1337    	DL	0
000BA8 00000000            A  1338    	DL	0
000BAC 00000000            A  1339    	DL	0
000BB0 00000000            A  1340    	DL	0
000BB4 00000000            A  1341    	DL	0
000BB8 00000000            A  1342    	DL	0
000BBC 00000000            A  1343    	DL	0
000BC0 00000000            A  1344    	DL	0
000BC4 00000000            A  1345    	DL	0
000BC8 00000000            A  1346    	DL	0
000BCC 00000000            A  1347    	DL	0
000BD0 00000000            A  1348    	DL	0
000BD4 00000000            A  1349    	DL	0
000BD8 00000000            A  1350    	DL	0
000BDC 00000000            A  1351    	DL	0
000BE0 00000000            A  1352    	DL	0
000BE4 00000000            A  1353    	DL	0
000BE8 00000000            A  1354    	DL	0
000BEC 00000000            A  1355    	DL	0
000BF0 00000000            A  1356    	DL	0
000BF4 00000000            A  1357    	DL	0
000BF8 00000000            A  1358    	DL	0
000BFC 00000000            A  1359    	DL	0
                           A  1360    .DEFINE "goal_data"
                           A  1361    .ALIAS "_goal_data"
                           A  1362    .CLASS 69
                           A  1363    .VALUE _goal_data
                           A  1364    .DIM 1
                           A  1365    .DIM 256
                           A  1366    .TYPE 879
                           A  1367    .ENDEF
000C00                     A  1368    _box_data:
000C00 FFFF00FF            A  1369    	DL	-16711681
000C04 FFFF00FF            A  1370    	DL	-16711681
000C08 FFFF00FF            A  1371    	DL	-16711681
000C0C FFFF00FF            A  1372    	DL	-16711681
000C10 FFFF00FF            A  1373    	DL	-16711681
000C14 FFFF00FF            A  1374    	DL	-16711681
000C18 FFFF00FF            A  1375    	DL	-16711681
000C1C FFFF00FF            A  1376    	DL	-16711681
000C20 FFFF00FF            A  1377    	DL	-16711681
000C24 FFFF00FF            A  1378    	DL	-16711681
000C28 FFFF00FF            A  1379    	DL	-16711681
000C2C FFFF00FF            A  1380    	DL	-16711681
000C30 FFFF00FF            A  1381    	DL	-16711681
000C34 FFFF00FF            A  1382    	DL	-16711681
000C38 FFFF00FF            A  1383    	DL	-16711681
000C3C FFFF00FF            A  1384    	DL	-16711681
000C40 FFFF00FF            A  1385    	DL	-16711681
000C44 808000FF            A  1386    	DL	-16744320
000C48 808000FF            A  1387    	DL	-16744320
000C4C 808000FF            A  1388    	DL	-16744320
000C50 808000FF            A  1389    	DL	-16744320
000C54 808000FF            A  1390    	DL	-16744320
000C58 808000FF            A  1391    	DL	-16744320
000C5C 808000FF            A  1392    	DL	-16744320
000C60 808000FF            A  1393    	DL	-16744320
000C64 808000FF            A  1394    	DL	-16744320
000C68 808000FF            A  1395    	DL	-16744320
000C6C 808000FF            A  1396    	DL	-16744320
000C70 808000FF            A  1397    	DL	-16744320
000C74 808000FF            A  1398    	DL	-16744320
000C78 FFFF00FF            A  1399    	DL	-16711681
000C7C 808000FF            A  1400    	DL	-16744320
000C80 FFFF00FF            A  1401    	DL	-16711681
000C84 808000FF            A  1402    	DL	-16744320
000C88 000000FF            A  1403    	DL	-16777216
000C8C 000000FF            A  1404    	DL	-16777216
000C90 000000FF            A  1405    	DL	-16777216
000C94 000000FF            A  1406    	DL	-16777216
000C98 000000FF            A  1407    	DL	-16777216
000C9C 000000FF            A  1408    	DL	-16777216
000CA0 000000FF            A  1409    	DL	-16777216
000CA4 000000FF            A  1410    	DL	-16777216
000CA8 000000FF            A  1411    	DL	-16777216
000CAC 000000FF            A  1412    	DL	-16777216
000CB0 000000FF            A  1413    	DL	-16777216
000CB4 000000FF            A  1414    	DL	-16777216
000CB8 FFFF00FF            A  1415    	DL	-16711681
000CBC 808000FF            A  1416    	DL	-16744320
000CC0 FFFF00FF            A  1417    	DL	-16711681
000CC4 808000FF            A  1418    	DL	-16744320
000CC8 000000FF            A  1419    	DL	-16777216
000CCC 808000FF            A  1420    	DL	-16744320
000CD0 808000FF            A  1421    	DL	-16744320
000CD4 000000FF            A  1422    	DL	-16777216
000CD8 808000FF            A  1423    	DL	-16744320
000CDC 808000FF            A  1424    	DL	-16744320
000CE0 808000FF            A  1425    	DL	-16744320
000CE4 808000FF            A  1426    	DL	-16744320
000CE8 000000FF            A  1427    	DL	-16777216
000CEC 808000FF            A  1428    	DL	-16744320
000CF0 808000FF            A  1429    	DL	-16744320
000CF4 000000FF            A  1430    	DL	-16777216
000CF8 FFFF00FF            A  1431    	DL	-16711681
000CFC 808000FF            A  1432    	DL	-16744320
000D00 FFFF00FF            A  1433    	DL	-16711681
000D04 808000FF            A  1434    	DL	-16744320
000D08 000000FF            A  1435    	DL	-16777216
000D0C 808000FF            A  1436    	DL	-16744320
000D10 FFFF00FF            A  1437    	DL	-16711681
000D14 808000FF            A  1438    	DL	-16744320
000D18 000000FF            A  1439    	DL	-16777216
000D1C FFFF00FF            A  1440    	DL	-16711681
000D20 FFFF00FF            A  1441    	DL	-16711681
000D24 000000FF            A  1442    	DL	-16777216
000D28 808000FF            A  1443    	DL	-16744320
000D2C FFFF00FF            A  1444    	DL	-16711681
000D30 808000FF            A  1445    	DL	-16744320
000D34 000000FF            A  1446    	DL	-16777216
000D38 FFFF00FF            A  1447    	DL	-16711681
000D3C 808000FF            A  1448    	DL	-16744320
000D40 FFFF00FF            A  1449    	DL	-16711681
000D44 808000FF            A  1450    	DL	-16744320
000D48 000000FF            A  1451    	DL	-16777216
000D4C 000000FF            A  1452    	DL	-16777216
000D50 808000FF            A  1453    	DL	-16744320
000D54 FFFF00FF            A  1454    	DL	-16711681
000D58 808000FF            A  1455    	DL	-16744320
000D5C 000000FF            A  1456    	DL	-16777216
000D60 000000FF            A  1457    	DL	-16777216
000D64 808000FF            A  1458    	DL	-16744320
000D68 FFFF00FF            A  1459    	DL	-16711681
000D6C 808000FF            A  1460    	DL	-16744320
000D70 000000FF            A  1461    	DL	-16777216
000D74 000000FF            A  1462    	DL	-16777216
000D78 FFFF00FF            A  1463    	DL	-16711681
000D7C 808000FF            A  1464    	DL	-16744320
000D80 FFFF00FF            A  1465    	DL	-16711681
000D84 808000FF            A  1466    	DL	-16744320
000D88 000000FF            A  1467    	DL	-16777216
000D8C 808000FF            A  1468    	DL	-16744320
000D90 000000FF            A  1469    	DL	-16777216
000D94 808000FF            A  1470    	DL	-16744320
000D98 FFFF00FF            A  1471    	DL	-16711681
000D9C 808000FF            A  1472    	DL	-16744320
000DA0 FFFF00FF            A  1473    	DL	-16711681
000DA4 FFFF00FF            A  1474    	DL	-16711681
000DA8 808000FF            A  1475    	DL	-16744320
000DAC 000000FF            A  1476    	DL	-16777216
000DB0 808000FF            A  1477    	DL	-16744320
000DB4 000000FF            A  1478    	DL	-16777216
000DB8 FFFF00FF            A  1479    	DL	-16711681
000DBC 808000FF            A  1480    	DL	-16744320
000DC0 FFFF00FF            A  1481    	DL	-16711681
000DC4 808000FF            A  1482    	DL	-16744320
000DC8 000000FF            A  1483    	DL	-16777216
000DCC 808000FF            A  1484    	DL	-16744320
000DD0 FFFF00FF            A  1485    	DL	-16711681
000DD4 000000FF            A  1486    	DL	-16777216
000DD8 808000FF            A  1487    	DL	-16744320
000DDC FFFF00FF            A  1488    	DL	-16711681
000DE0 FFFF00FF            A  1489    	DL	-16711681
000DE4 808000FF            A  1490    	DL	-16744320
000DE8 000000FF            A  1491    	DL	-16777216
000DEC 808000FF            A  1492    	DL	-16744320
000DF0 FFFF00FF            A  1493    	DL	-16711681
000DF4 000000FF            A  1494    	DL	-16777216
000DF8 FFFF00FF            A  1495    	DL	-16711681
000DFC 808000FF            A  1496    	DL	-16744320
000E00 FFFF00FF            A  1497    	DL	-16711681
000E04 808000FF            A  1498    	DL	-16744320
000E08 000000FF            A  1499    	DL	-16777216
000E0C 808000FF            A  1500    	DL	-16744320
000E10 808000FF            A  1501    	DL	-16744320
000E14 000000FF            A  1502    	DL	-16777216
000E18 FFFF00FF            A  1503    	DL	-16711681
000E1C FFFF00FF            A  1504    	DL	-16711681
000E20 FFFF00FF            A  1505    	DL	-16711681
000E24 FFFF00FF            A  1506    	DL	-16711681
000E28 000000FF            A  1507    	DL	-16777216
000E2C 808000FF            A  1508    	DL	-16744320
000E30 FFFF00FF            A  1509    	DL	-16711681
000E34 000000FF            A  1510    	DL	-16777216
000E38 FFFF00FF            A  1511    	DL	-16711681
000E3C 808000FF            A  1512    	DL	-16744320
000E40 FFFF00FF            A  1513    	DL	-16711681
000E44 808000FF            A  1514    	DL	-16744320
000E48 000000FF            A  1515    	DL	-16777216
000E4C 808000FF            A  1516    	DL	-16744320
000E50 000000FF            A  1517    	DL	-16777216
000E54 808000FF            A  1518    	DL	-16744320
000E58 FFFF00FF            A  1519    	DL	-16711681
000E5C 808000FF            A  1520    	DL	-16744320
000E60 FFFF00FF            A  1521    	DL	-16711681
000E64 FFFF00FF            A  1522    	DL	-16711681
000E68 808000FF            A  1523    	DL	-16744320
000E6C 000000FF            A  1524    	DL	-16777216
000E70 FFFF00FF            A  1525    	DL	-16711681
000E74 000000FF            A  1526    	DL	-16777216
000E78 FFFF00FF            A  1527    	DL	-16711681
000E7C 808000FF            A  1528    	DL	-16744320
000E80 FFFF00FF            A  1529    	DL	-16711681
000E84 808000FF            A  1530    	DL	-16744320
000E88 000000FF            A  1531    	DL	-16777216
000E8C 000000FF            A  1532    	DL	-16777216
000E90 808000FF            A  1533    	DL	-16744320
000E94 FFFF00FF            A  1534    	DL	-16711681
000E98 808000FF            A  1535    	DL	-16744320
000E9C 000000FF            A  1536    	DL	-16777216
000EA0 000000FF            A  1537    	DL	-16777216
000EA4 808000FF            A  1538    	DL	-16744320
000EA8 FFFF00FF            A  1539    	DL	-16711681
000EAC 808000FF            A  1540    	DL	-16744320
000EB0 000000FF            A  1541    	DL	-16777216
000EB4 000000FF            A  1542    	DL	-16777216
000EB8 FFFF00FF            A  1543    	DL	-16711681
000EBC 808000FF            A  1544    	DL	-16744320
000EC0 FFFF00FF            A  1545    	DL	-16711681
000EC4 808000FF            A  1546    	DL	-16744320
000EC8 000000FF            A  1547    	DL	-16777216
000ECC 808000FF            A  1548    	DL	-16744320
000ED0 FFFF00FF            A  1549    	DL	-16711681
000ED4 808000FF            A  1550    	DL	-16744320
000ED8 000000FF            A  1551    	DL	-16777216
000EDC 808000FF            A  1552    	DL	-16744320
000EE0 FFFF00FF            A  1553    	DL	-16711681
000EE4 000000FF            A  1554    	DL	-16777216
000EE8 808000FF            A  1555    	DL	-16744320
000EEC FFFF00FF            A  1556    	DL	-16711681
000EF0 808000FF            A  1557    	DL	-16744320
000EF4 000000FF            A  1558    	DL	-16777216
000EF8 FFFF00FF            A  1559    	DL	-16711681
000EFC 808000FF            A  1560    	DL	-16744320
000F00 FFFF00FF            A  1561    	DL	-16711681
000F04 808000FF            A  1562    	DL	-16744320
000F08 000000FF            A  1563    	DL	-16777216
000F0C 808000FF            A  1564    	DL	-16744320
000F10 808000FF            A  1565    	DL	-16744320
000F14 000000FF            A  1566    	DL	-16777216
000F18 808000FF            A  1567    	DL	-16744320
000F1C FFFF00FF            A  1568    	DL	-16711681
000F20 FFFF00FF            A  1569    	DL	-16711681
000F24 FFFF00FF            A  1570    	DL	-16711681
000F28 000000FF            A  1571    	DL	-16777216
000F2C 808000FF            A  1572    	DL	-16744320
000F30 808000FF            A  1573    	DL	-16744320
000F34 000000FF            A  1574    	DL	-16777216
000F38 FFFF00FF            A  1575    	DL	-16711681
000F3C 808000FF            A  1576    	DL	-16744320
000F40 FFFF00FF            A  1577    	DL	-16711681
000F44 808000FF            A  1578    	DL	-16744320
000F48 000000FF            A  1579    	DL	-16777216
000F4C 000000FF            A  1580    	DL	-16777216
000F50 000000FF            A  1581    	DL	-16777216
000F54 000000FF            A  1582    	DL	-16777216
000F58 000000FF            A  1583    	DL	-16777216
000F5C 000000FF            A  1584    	DL	-16777216
000F60 000000FF            A  1585    	DL	-16777216
000F64 000000FF            A  1586    	DL	-16777216
000F68 000000FF            A  1587    	DL	-16777216
000F6C 000000FF            A  1588    	DL	-16777216
000F70 000000FF            A  1589    	DL	-16777216
000F74 000000FF            A  1590    	DL	-16777216
000F78 FFFF00FF            A  1591    	DL	-16711681
000F7C 808000FF            A  1592    	DL	-16744320
000F80 FFFF00FF            A  1593    	DL	-16711681
000F84 FFFF00FF            A  1594    	DL	-16711681
000F88 FFFF00FF            A  1595    	DL	-16711681
000F8C FFFF00FF            A  1596    	DL	-16711681
000F90 FFFF00FF            A  1597    	DL	-16711681
000F94 FFFF00FF            A  1598    	DL	-16711681
000F98 FFFF00FF            A  1599    	DL	-16711681
000F9C FFFF00FF            A  1600    	DL	-16711681
000FA0 FFFF00FF            A  1601    	DL	-16711681
000FA4 FFFF00FF            A  1602    	DL	-16711681
000FA8 FFFF00FF            A  1603    	DL	-16711681
000FAC FFFF00FF            A  1604    	DL	-16711681
000FB0 FFFF00FF            A  1605    	DL	-16711681
000FB4 FFFF00FF            A  1606    	DL	-16711681
000FB8 FFFF00FF            A  1607    	DL	-16711681
000FBC 808000FF            A  1608    	DL	-16744320
000FC0 FFFF00FF            A  1609    	DL	-16711681
000FC4 808000FF            A  1610    	DL	-16744320
000FC8 808000FF            A  1611    	DL	-16744320
000FCC 808000FF            A  1612    	DL	-16744320
000FD0 808000FF            A  1613    	DL	-16744320
000FD4 808000FF            A  1614    	DL	-16744320
000FD8 808000FF            A  1615    	DL	-16744320
000FDC 808000FF            A  1616    	DL	-16744320
000FE0 808000FF            A  1617    	DL	-16744320
000FE4 808000FF            A  1618    	DL	-16744320
000FE8 808000FF            A  1619    	DL	-16744320
000FEC 808000FF            A  1620    	DL	-16744320
000FF0 808000FF            A  1621    	DL	-16744320
000FF4 808000FF            A  1622    	DL	-16744320
000FF8 808000FF            A  1623    	DL	-16744320
000FFC 808000FF            A  1624    	DL	-16744320
                           A  1625    .DEFINE "box_data"
                           A  1626    .ALIAS "_box_data"
                           A  1627    .CLASS 69
                           A  1628    .VALUE _box_data
                           A  1629    .DIM 1
                           A  1630    .DIM 256
                           A  1631    .TYPE 879
                           A  1632    .ENDEF
001000                     A  1633    _boxongoal_data:
001000 FFFF00FF            A  1634    	DL	-16711681
001004 FFFF00FF            A  1635    	DL	-16711681
001008 FFFF00FF            A  1636    	DL	-16711681
00100C FFFF00FF            A  1637    	DL	-16711681
001010 FFFF00FF            A  1638    	DL	-16711681
001014 FFFF00FF            A  1639    	DL	-16711681
001018 FFFF00FF            A  1640    	DL	-16711681
00101C FFFF00FF            A  1641    	DL	-16711681
001020 FFFF00FF            A  1642    	DL	-16711681
001024 FFFF00FF            A  1643    	DL	-16711681
001028 FFFF00FF            A  1644    	DL	-16711681
00102C FFFF00FF            A  1645    	DL	-16711681
001030 FFFF00FF            A  1646    	DL	-16711681
001034 FFFF00FF            A  1647    	DL	-16711681
001038 FFFF00FF            A  1648    	DL	-16711681
00103C FFFF00FF            A  1649    	DL	-16711681
001040 FFFF00FF            A  1650    	DL	-16711681
001044 808000FF            A  1651    	DL	-16744320
001048 808000FF            A  1652    	DL	-16744320
00104C 808000FF            A  1653    	DL	-16744320
001050 808000FF            A  1654    	DL	-16744320
001054 808000FF            A  1655    	DL	-16744320
001058 808000FF            A  1656    	DL	-16744320
00105C 808000FF            A  1657    	DL	-16744320
001060 808000FF            A  1658    	DL	-16744320
001064 808000FF            A  1659    	DL	-16744320
001068 808000FF            A  1660    	DL	-16744320
00106C 808000FF            A  1661    	DL	-16744320
001070 808000FF            A  1662    	DL	-16744320
001074 808000FF            A  1663    	DL	-16744320
001078 FFFF00FF            A  1664    	DL	-16711681
00107C 808000FF            A  1665    	DL	-16744320
001080 FFFF00FF            A  1666    	DL	-16711681
001084 808000FF            A  1667    	DL	-16744320
001088 000000FF            A  1668    	DL	-16777216
00108C 000000FF            A  1669    	DL	-16777216
001090 000000FF            A  1670    	DL	-16777216
001094 000000FF            A  1671    	DL	-16777216
001098 000000FF            A  1672    	DL	-16777216
00109C 000000FF            A  1673    	DL	-16777216
0010A0 000000FF            A  1674    	DL	-16777216
0010A4 000000FF            A  1675    	DL	-16777216
0010A8 000000FF            A  1676    	DL	-16777216
0010AC 000000FF            A  1677    	DL	-16777216
0010B0 000000FF            A  1678    	DL	-16777216
0010B4 000000FF            A  1679    	DL	-16777216
0010B8 FFFF00FF            A  1680    	DL	-16711681
0010BC 808000FF            A  1681    	DL	-16744320
0010C0 FFFF00FF            A  1682    	DL	-16711681
0010C4 808000FF            A  1683    	DL	-16744320
0010C8 000000FF            A  1684    	DL	-16777216
0010CC 808000FF            A  1685    	DL	-16744320
0010D0 808000FF            A  1686    	DL	-16744320
0010D4 000000FF            A  1687    	DL	-16777216
0010D8 008000FF            A  1688    	DL	-16744448
0010DC 008000FF            A  1689    	DL	-16744448
0010E0 008000FF            A  1690    	DL	-16744448
0010E4 008000FF            A  1691    	DL	-16744448
0010E8 000000FF            A  1692    	DL	-16777216
0010EC 808000FF            A  1693    	DL	-16744320
0010F0 808000FF            A  1694    	DL	-16744320
0010F4 000000FF            A  1695    	DL	-16777216
0010F8 FFFF00FF            A  1696    	DL	-16711681
0010FC 808000FF            A  1697    	DL	-16744320
001100 FFFF00FF            A  1698    	DL	-16711681
001104 808000FF            A  1699    	DL	-16744320
001108 000000FF            A  1700    	DL	-16777216
00110C 808000FF            A  1701    	DL	-16744320
001110 FFFF00FF            A  1702    	DL	-16711681
001114 808000FF            A  1703    	DL	-16744320
001118 000000FF            A  1704    	DL	-16777216
00111C 00FF00FF            A  1705    	DL	-16711936
001120 00FF00FF            A  1706    	DL	-16711936
001124 000000FF            A  1707    	DL	-16777216
001128 808000FF            A  1708    	DL	-16744320
00112C FFFF00FF            A  1709    	DL	-16711681
001130 808000FF            A  1710    	DL	-16744320
001134 000000FF            A  1711    	DL	-16777216
001138 FFFF00FF            A  1712    	DL	-16711681
00113C 808000FF            A  1713    	DL	-16744320
001140 FFFF00FF            A  1714    	DL	-16711681
001144 808000FF            A  1715    	DL	-16744320
001148 000000FF            A  1716    	DL	-16777216
00114C 000000FF            A  1717    	DL	-16777216
001150 808000FF            A  1718    	DL	-16744320
001154 FFFF00FF            A  1719    	DL	-16711681
001158 808000FF            A  1720    	DL	-16744320
00115C 000000FF            A  1721    	DL	-16777216
001160 000000FF            A  1722    	DL	-16777216
001164 808000FF            A  1723    	DL	-16744320
001168 FFFF00FF            A  1724    	DL	-16711681
00116C 808000FF            A  1725    	DL	-16744320
001170 000000FF            A  1726    	DL	-16777216
001174 000000FF            A  1727    	DL	-16777216
001178 FFFF00FF            A  1728    	DL	-16711681
00117C 808000FF            A  1729    	DL	-16744320
001180 FFFF00FF            A  1730    	DL	-16711681
001184 808000FF            A  1731    	DL	-16744320
001188 000000FF            A  1732    	DL	-16777216
00118C 008000FF            A  1733    	DL	-16744448
001190 000000FF            A  1734    	DL	-16777216
001194 808000FF            A  1735    	DL	-16744320
001198 FFFF00FF            A  1736    	DL	-16711681
00119C 808000FF            A  1737    	DL	-16744320
0011A0 FFFF00FF            A  1738    	DL	-16711681
0011A4 FFFF00FF            A  1739    	DL	-16711681
0011A8 808000FF            A  1740    	DL	-16744320
0011AC 000000FF            A  1741    	DL	-16777216
0011B0 008000FF            A  1742    	DL	-16744448
0011B4 000000FF            A  1743    	DL	-16777216
0011B8 FFFF00FF            A  1744    	DL	-16711681
0011BC 808000FF            A  1745    	DL	-16744320
0011C0 FFFF00FF            A  1746    	DL	-16711681
0011C4 808000FF            A  1747    	DL	-16744320
0011C8 000000FF            A  1748    	DL	-16777216
0011CC 008000FF            A  1749    	DL	-16744448
0011D0 00FF00FF            A  1750    	DL	-16711936
0011D4 000000FF            A  1751    	DL	-16777216
0011D8 808000FF            A  1752    	DL	-16744320
0011DC 00FF00FF            A  1753    	DL	-16711936
0011E0 00FF00FF            A  1754    	DL	-16711936
0011E4 808000FF            A  1755    	DL	-16744320
0011E8 000000FF            A  1756    	DL	-16777216
0011EC 00FF00FF            A  1757    	DL	-16711936
0011F0 008000FF            A  1758    	DL	-16744448
0011F4 000000FF            A  1759    	DL	-16777216
0011F8 FFFF00FF            A  1760    	DL	-16711681
0011FC 808000FF            A  1761    	DL	-16744320
001200 FFFF00FF            A  1762    	DL	-16711681
001204 808000FF            A  1763    	DL	-16744320
001208 000000FF            A  1764    	DL	-16777216
00120C 008000FF            A  1765    	DL	-16744448
001210 00FF00FF            A  1766    	DL	-16711936
001214 000000FF            A  1767    	DL	-16777216
001218 FFFF00FF            A  1768    	DL	-16711681
00121C 00FF00FF            A  1769    	DL	-16711936
001220 00FF00FF            A  1770    	DL	-16711936
001224 FFFF00FF            A  1771    	DL	-16711681
001228 000000FF            A  1772    	DL	-16777216
00122C 00FF00FF            A  1773    	DL	-16711936
001230 008000FF            A  1774    	DL	-16744448
001234 000000FF            A  1775    	DL	-16777216
001238 FFFF00FF            A  1776    	DL	-16711681
00123C 808000FF            A  1777    	DL	-16744320
001240 FFFF00FF            A  1778    	DL	-16711681
001244 808000FF            A  1779    	DL	-16744320
001248 000000FF            A  1780    	DL	-16777216
00124C 008000FF            A  1781    	DL	-16744448
001250 000000FF            A  1782    	DL	-16777216
001254 808000FF            A  1783    	DL	-16744320
001258 FFFF00FF            A  1784    	DL	-16711681
00125C 808000FF            A  1785    	DL	-16744320
001260 FFFF00FF            A  1786    	DL	-16711681
001264 FFFF00FF            A  1787    	DL	-16711681
001268 808000FF            A  1788    	DL	-16744320
00126C 000000FF            A  1789    	DL	-16777216
001270 008000FF            A  1790    	DL	-16744448
001274 000000FF            A  1791    	DL	-16777216
001278 FFFF00FF            A  1792    	DL	-16711681
00127C 808000FF            A  1793    	DL	-16744320
001280 FFFF00FF            A  1794    	DL	-16711681
001284 808000FF            A  1795    	DL	-16744320
001288 000000FF            A  1796    	DL	-16777216
00128C 000000FF            A  1797    	DL	-16777216
001290 808000FF            A  1798    	DL	-16744320
001294 FFFF00FF            A  1799    	DL	-16711681
001298 808000FF            A  1800    	DL	-16744320
00129C 000000FF            A  1801    	DL	-16777216
0012A0 000000FF            A  1802    	DL	-16777216
0012A4 808000FF            A  1803    	DL	-16744320
0012A8 FFFF00FF            A  1804    	DL	-16711681
0012AC 808000FF            A  1805    	DL	-16744320
0012B0 000000FF            A  1806    	DL	-16777216
0012B4 000000FF            A  1807    	DL	-16777216
0012B8 FFFF00FF            A  1808    	DL	-16711681
0012BC 808000FF            A  1809    	DL	-16744320
0012C0 FFFF00FF            A  1810    	DL	-16711681
0012C4 808000FF            A  1811    	DL	-16744320
0012C8 000000FF            A  1812    	DL	-16777216
0012CC 808000FF            A  1813    	DL	-16744320
0012D0 FFFF00FF            A  1814    	DL	-16711681
0012D4 808000FF            A  1815    	DL	-16744320
0012D8 000000FF            A  1816    	DL	-16777216
0012DC 00FF00FF            A  1817    	DL	-16711936
0012E0 00FF00FF            A  1818    	DL	-16711936
0012E4 000000FF            A  1819    	DL	-16777216
0012E8 808000FF            A  1820    	DL	-16744320
0012EC FFFF00FF            A  1821    	DL	-16711681
0012F0 808000FF            A  1822    	DL	-16744320
0012F4 000000FF            A  1823    	DL	-16777216
0012F8 FFFF00FF            A  1824    	DL	-16711681
0012FC 808000FF            A  1825    	DL	-16744320
001300 FFFF00FF            A  1826    	DL	-16711681
001304 808000FF            A  1827    	DL	-16744320
001308 000000FF            A  1828    	DL	-16777216
00130C 808000FF            A  1829    	DL	-16744320
001310 808000FF            A  1830    	DL	-16744320
001314 000000FF            A  1831    	DL	-16777216
001318 008000FF            A  1832    	DL	-16744448
00131C 008000FF            A  1833    	DL	-16744448
001320 008000FF            A  1834    	DL	-16744448
001324 008000FF            A  1835    	DL	-16744448
001328 000000FF            A  1836    	DL	-16777216
00132C 808000FF            A  1837    	DL	-16744320
001330 808000FF            A  1838    	DL	-16744320
001334 000000FF            A  1839    	DL	-16777216
001338 FFFF00FF            A  1840    	DL	-16711681
00133C 808000FF            A  1841    	DL	-16744320
001340 FFFF00FF            A  1842    	DL	-16711681
001344 808000FF            A  1843    	DL	-16744320
001348 000000FF            A  1844    	DL	-16777216
00134C 000000FF            A  1845    	DL	-16777216
001350 000000FF            A  1846    	DL	-16777216
001354 000000FF            A  1847    	DL	-16777216
001358 000000FF            A  1848    	DL	-16777216
00135C 000000FF            A  1849    	DL	-16777216
001360 000000FF            A  1850    	DL	-16777216
001364 000000FF            A  1851    	DL	-16777216
001368 000000FF            A  1852    	DL	-16777216
00136C 000000FF            A  1853    	DL	-16777216
001370 000000FF            A  1854    	DL	-16777216
001374 000000FF            A  1855    	DL	-16777216
001378 FFFF00FF            A  1856    	DL	-16711681
00137C 808000FF            A  1857    	DL	-16744320
001380 FFFF00FF            A  1858    	DL	-16711681
001384 FFFF00FF            A  1859    	DL	-16711681
001388 FFFF00FF            A  1860    	DL	-16711681
00138C FFFF00FF            A  1861    	DL	-16711681
001390 FFFF00FF            A  1862    	DL	-16711681
001394 FFFF00FF            A  1863    	DL	-16711681
001398 FFFF00FF            A  1864    	DL	-16711681
00139C FFFF00FF            A  1865    	DL	-16711681
0013A0 FFFF00FF            A  1866    	DL	-16711681
0013A4 FFFF00FF            A  1867    	DL	-16711681
0013A8 FFFF00FF            A  1868    	DL	-16711681
0013AC FFFF00FF            A  1869    	DL	-16711681
0013B0 FFFF00FF            A  1870    	DL	-16711681
0013B4 FFFF00FF            A  1871    	DL	-16711681
0013B8 FFFF00FF            A  1872    	DL	-16711681
0013BC 808000FF            A  1873    	DL	-16744320
0013C0 FFFF00FF            A  1874    	DL	-16711681
0013C4 808000FF            A  1875    	DL	-16744320
0013C8 808000FF            A  1876    	DL	-16744320
0013CC 808000FF            A  1877    	DL	-16744320
0013D0 808000FF            A  1878    	DL	-16744320
0013D4 808000FF            A  1879    	DL	-16744320
0013D8 808000FF            A  1880    	DL	-16744320
0013DC 808000FF            A  1881    	DL	-16744320
0013E0 808000FF            A  1882    	DL	-16744320
0013E4 808000FF            A  1883    	DL	-16744320
0013E8 808000FF            A  1884    	DL	-16744320
0013EC 808000FF            A  1885    	DL	-16744320
0013F0 808000FF            A  1886    	DL	-16744320
0013F4 808000FF            A  1887    	DL	-16744320
0013F8 808000FF            A  1888    	DL	-16744320
0013FC 808000FF            A  1889    	DL	-16744320
                           A  1890    .DEFINE "boxongoal_data"
                           A  1891    .ALIAS "_boxongoal_data"
                           A  1892    .CLASS 69
                           A  1893    .VALUE _boxongoal_data
                           A  1894    .DIM 1
                           A  1895    .DIM 256
                           A  1896    .TYPE 879
                           A  1897    .ENDEF
001400                     A  1898    _lookup:
001400 23                  A  1899    	DB	35
001401 00                  A  1900    	DB	0
001402 40                  A  1901    	DB	64
001403 01                  A  1902    	DB	1
001404 2B                  A  1903    	DB	43
001405 02                  A  1904    	DB	2
001406 24                  A  1905    	DB	36
001407 03                  A  1906    	DB	3
001408 2A                  A  1907    	DB	42
001409 04                  A  1908    	DB	4
00140A 2E                  A  1909    	DB	46
00140B 05                  A  1910    	DB	5
00140C 20                  A  1911    	DB	32
00140D 06                  A  1912    	DB	6
                           A  1913    .DEFINE "lookup"
                           A  1914    .ALIAS "_lookup"
                           A  1915    .CLASS 84
                           A  1916    .VALUE _lookup
                           A  1917    .DIM 7
                           A  1918    .TAG "NONAME0"
                           A  1919    .TYPE 104
                           A  1920    .ENDEF
                           A  1921    ;    1	#include "game.h"
                           A  1922    ;    2	#include "sokobanprep.h"
                           A  1923    ;    3	#include <defines.h>
                           A  1924    ;    4	#include <stdio.h>
                           A  1925    ;    5	#include <stdlib.h>
                           A  1926    ;    6	#include <CTYPE.H>
                           A  1927    ;    7	#include "ff.h"
                           A  1928    ;    8	#include "mos.h"
                           A  1929    ;    9	#include "vdu.h"
                           A  1930    ;   10	#include "String.h"
                           A  1931    ;   11	#include "timer.h"
                           A  1932    ;   12	#include "uart.h"
                           A  1933    ;   13	
                           A  1934    ;   14	#define SENDDELAY	1
                           A  1935    ;   15	#define FRAMEDELAY  15
                           A  1936    ;   16	
                           A  1937    ;   17	UINT32 bitmapbuffer[BITMAPSIZE];		
                           A  1938    ;   18	UINT8 sprites[MAXHEIGHT][MAXWIDTH]; // 
                           A  1939    ;   19	struct sokobanlevel currentlevel;	// 
                           A  1940    ;   20	UINT8 spritenumber;
                           A  1941    ;   21	
                           A  1942    ;   22	static const UINT32 wall_data[1][256] =
                           A  1943    ;   23	{
                           A  1944    ;   24	0xff008080, 0xff008080, 0xff008080, 0xf
                           A  1945    ;   25	0xff000080, 0xff000080, 0xff000080, 0xf
                           A  1946    ;   26	0xff000080, 0xff000080, 0xff000080, 0xf
                           A  1947    ;   27	0xff000080, 0xff000080, 0xff808080, 0xf
                           A  1948    ;   28	0xff000080, 0xff000080, 0xff000080, 0xf
                           A  1949    ;   29	0xff000080, 0xff000080, 0xff000080, 0xf
                           A  1950    ;   30	0xff808080, 0xff808080, 0xff808080, 0xf
                           A  1951    ;   31	0xff404040, 0xff404040, 0xff404040, 0xf
                           A  1952    ;   32	0xff404040, 0xff008080, 0xff008080, 0xf
                           A  1953    ;   33	0xff404040, 0xff008080, 0xff008080, 0xf
                           A  1954    ;   34	0xff404040, 0xff008080, 0xff000080, 0xf
                           A  1955    ;   35	0xff404040, 0xff008080, 0xff000080, 0xf
                           A  1956    ;   36	0xff404040, 0xff008080, 0xff000080, 0xf
                           A  1957    ;   37	0xff404040, 0xff008080, 0xff000080, 0xf
                           A  1958    ;   38	0xff404040, 0xff008080, 0xff808080, 0xf
                           A  1959    ;   39	0xff404040, 0xff404040, 0xff404040, 0xf
                           A  1960    ;   40	}
                           A  1961    ;   41	};
                           A  1962    ;   42	
                           A  1963    ;   43	static const UINT32 player_data[1][256]
                           A  1964    ;   44	{
                           A  1965    ;   45	0x00000000, 0x00000000, 0x00000000, 0x0
                           A  1966    ;   46	0x00000000, 0x00000000, 0x00000000, 0x0
                           A  1967    ;   47	0x00000000, 0x00000000, 0x00000000, 0xf
                           A  1968    ;   48	0x00000000, 0x00000000, 0x00000000, 0xf
                           A  1969    ;   49	0x00000000, 0x00000000, 0x00000000, 0xf
                           A  1970    ;   50	0x00000000, 0x00000000, 0x00000000, 0x0
                           A  1971    ;   51	0x00000000, 0x00000000, 0x00000000, 0x0
                           A  1972    ;   52	0x00000000, 0x00000000, 0x00000000, 0x0
                           A  1973    ;   53	0x00000000, 0x00000000, 0x00000000, 0xf
                           A  1974    ;   54	0x00000000, 0x00000000, 0xff000000, 0xf
                           A  1975    ;   55	0x00000000, 0x00000000, 0xff404040, 0xf
                           A  1976    ;   56	0x00000000, 0xff000000, 0xff008080, 0xf
                           A  1977    ;   57	0x00000000, 0xff000000, 0xff008080, 0xf
                           A  1978    ;   58	0x00000000, 0x00000000, 0xff000000, 0xf
                           A  1979    ;   59	0x00000000, 0x00000000, 0x00000000, 0xf
                           A  1980    ;   60	0x00000000, 0x00000000, 0x00000000, 0xf
                           A  1981    ;   61	}
                           A  1982    ;   62	};
                           A  1983    ;   63	
                           A  1984    ;   64	static const UINT32 goal_data[1][256] =
                           A  1985    ;   65	{
                           A  1986    ;   66	0x00000000, 0x00000000, 0x00000000, 0x0
                           A  1987    ;   67	0x00000000, 0x00000000, 0x00000000, 0x0
                           A  1988    ;   68	0x00000000, 0x00000000, 0x00000000, 0x0
                           A  1989    ;   69	0x00000000, 0x00000000, 0x00000000, 0x0
                           A  1990    ;   70	0x00000000, 0x00000000, 0x00000000, 0x0
                           A  1991    ;   71	0x00000000, 0x00000000, 0x00000000, 0x0
                           A  1992    ;   72	0x00000000, 0x00000000, 0x00000000, 0xf
                           A  1993    ;   73	0x00000000, 0x00000000, 0x00000000, 0x0
                           A  1994    ;   74	0x00000000, 0x00000000, 0x00000000, 0x0
                           A  1995    ;   75	0x00000000, 0x00000000, 0x00000000, 0xf
                           A  1996    ;   76	0x00000000, 0x00000000, 0x00000000, 0x0
                           A  1997    ;   77	0x00000000, 0x00000000, 0x00000000, 0x0
                           A  1998    ;   78	0x00000000, 0x00000000, 0x00000000, 0x0
                           A  1999    ;   79	0x00000000, 0x00000000, 0x00000000, 0x0
                           A  2000    ;   80	0x00000000, 0x00000000, 0x00000000, 0x0
                           A  2001    ;   81	0x00000000, 0x00000000, 0x00000000, 0x0
                           A  2002    ;   82	}
                           A  2003    ;   83	};
                           A  2004    ;   84	
                           A  2005    ;   85	static const UINT32 box_data[1][256] = 
                           A  2006    ;   86	{
                           A  2007    ;   87	0xff00ffff, 0xff00ffff, 0xff00ffff, 0xf
                           A  2008    ;   88	0xff00ffff, 0xff008080, 0xff008080, 0xf
                           A  2009    ;   89	0xff00ffff, 0xff008080, 0xff000000, 0xf
                           A  2010    ;   90	0xff00ffff, 0xff008080, 0xff000000, 0xf
                           A  2011    ;   91	0xff00ffff, 0xff008080, 0xff000000, 0xf
                           A  2012    ;   92	0xff00ffff, 0xff008080, 0xff000000, 0xf
                           A  2013    ;   93	0xff00ffff, 0xff008080, 0xff000000, 0xf
                           A  2014    ;   94	0xff00ffff, 0xff008080, 0xff000000, 0xf
                           A  2015    ;   95	0xff00ffff, 0xff008080, 0xff000000, 0xf
                           A  2016    ;   96	0xff00ffff, 0xff008080, 0xff000000, 0xf
                           A  2017    ;   97	0xff00ffff, 0xff008080, 0xff000000, 0xf
                           A  2018    ;   98	0xff00ffff, 0xff008080, 0xff000000, 0xf
                           A  2019    ;   99	0xff00ffff, 0xff008080, 0xff000000, 0xf
                           A  2020    ;  100	0xff00ffff, 0xff008080, 0xff000000, 0xf
                           A  2021    ;  101	0xff00ffff, 0xff00ffff, 0xff00ffff, 0xf
                           A  2022    ;  102	0xff00ffff, 0xff008080, 0xff008080, 0xf
                           A  2023    ;  103	}
                           A  2024    ;  104	};
                           A  2025    ;  105	
                           A  2026    ;  106	static const UINT32 boxongoal_data[1][2
                           A  2027    ;  107	{
                           A  2028    ;  108	0xff00ffff, 0xff00ffff, 0xff00ffff, 0xf
                           A  2029    ;  109	0xff00ffff, 0xff008080, 0xff008080, 0xf
                           A  2030    ;  110	0xff00ffff, 0xff008080, 0xff000000, 0xf
                           A  2031    ;  111	0xff00ffff, 0xff008080, 0xff000000, 0xf
                           A  2032    ;  112	0xff00ffff, 0xff008080, 0xff000000, 0xf
                           A  2033    ;  113	0xff00ffff, 0xff008080, 0xff000000, 0xf
                           A  2034    ;  114	0xff00ffff, 0xff008080, 0xff000000, 0xf
                           A  2035    ;  115	0xff00ffff, 0xff008080, 0xff000000, 0xf
                           A  2036    ;  116	0xff00ffff, 0xff008080, 0xff000000, 0xf
                           A  2037    ;  117	0xff00ffff, 0xff008080, 0xff000000, 0xf
                           A  2038    ;  118	0xff00ffff, 0xff008080, 0xff000000, 0xf
                           A  2039    ;  119	0xff00ffff, 0xff008080, 0xff000000, 0xf
                           A  2040    ;  120	0xff00ffff, 0xff008080, 0xff000000, 0xf
                           A  2041    ;  121	0xff00ffff, 0xff008080, 0xff000000, 0xf
                           A  2042    ;  122	0xff00ffff, 0xff00ffff, 0xff00ffff, 0xf
                           A  2043    ;  123	0xff00ffff, 0xff008080, 0xff008080, 0xf
                           A  2044    ;  124	}
                           A  2045    ;  125	};
                           A  2046    ;  126	
                           A  2047    ;  127	const chartotile lookup[] =
                           A  2048    ;  128	{
                           A  2049    	SEGMENT CODE
                           A  2050    ;  129		{CHAR_WALL, TILE_WALL},
                           A  2051    ;  130		{CHAR_PLAYER, TILE_PLAYER},
                           A  2052    ;  131		{CHAR_PLAYERONGOAL, TILE_PLAYERONGO
                           A  2053    ;  132		{CHAR_BOX, TILE_BOX},
                           A  2054    ;  133		{CHAR_BOXONGOAL, TILE_BOXONGOAL},
                           A  2055    ;  134		{CHAR_GOAL, TILE_GOAL},
                           A  2056    ;  135		{CHAR_FLOOR, TILE_FLOOR}
                           A  2057    ;  136	};
                           A  2058    ;  137	
                           A  2059    ;  138	BOOL game_init(void)
                           A  2060    ;  139	{
000000                     A  2061    _game_init:
                           A  2062    .DEFINE "_game_init"
                           A  2063    
                           A  2064    .VALUE _game_init
                           A  2065    
                           A  2066    .CLASS 2
                           A  2067    
                           A  2068    .TYPE 76
                           A  2069    
                           A  2070    .ENDEF
                           A  2071    
                           A  2072    .BEGFUNC "game_init",139,"_game_init"
                           A  2073    
000000 DDE5                A  2074    	PUSH	IX
000002 DD210000 00         A  2075    	LD	IX,0
000007 DD39                A  2076    	ADD	IX,SP
                           A  2077    ;  140		// needs to be called once, to load
                           A  2078    ;  141		FIL	   	fil;
                           A  2079    ;  142		UINT   	br;	
                           A  2080    ;  143		FSIZE_t fSize;
                           A  2081    ;  144		UINT16	levels;
                           A  2082    ;  145		FRESULT	fr;
                           A  2083    ;  146		UINT8	n;
                           A  2084    ;  147		
                           A  2085    ;  148		/*
                           A  2086    ;  149		// load all bitmaps and send them t
                           A  2087    ;  150		fr = f_open(&fil, FILENAME_BITMAPS,
                           A  2088    ;  151		if(fr == FR_OK) {
                           A  2089    ;  152			fSize = f_size(&fil);
                           A  2090    ;  153			if(fSize != BITMAPNUMBER * BITM
                           A  2091    ;  154			{
                           A  2092    ;  155				f_close(&fil);
                           A  2093    ;  156				return FALSE;
                           A  2094    ;  157			}
                           A  2095    ;  158			for(n = 0; n < BITMAPNUMBER; n+
                           A  2096    ;  159			{
                           A  2097    ;  160				fr = f_read(&fil, bitmapbuf
                           A  2098    ;  161				bitmap_select(n);
                           A  2099    ;  162				bitmap_sendData_selected(BI
                           A  2100    ;  163			}
                           A  2101    ;  164		}
                           A  2102    ;  165		else {
                           A  2103    ;  166			mos_fileError(fr);
                           A  2104    ;  167			return FALSE;
                           A  2105    ;  168		}
                           A  2106    ;  169		f_close(&fil);
                           A  2107    ;  170		*/
                           A  2108    ;  171		
                           A  2109    ;  172		bitmap_sendData(TILE_WALL, BITMAP_W
                           A  2110    .LINE 172
                           A  2111    
000009 01 00 00 00         A  2112    	LD	BC,_wall_data
00000D C5                  A  2113    	PUSH	BC
00000E 01100000            A  2114    	LD	BC,16
000012 C5                  A  2115    	PUSH	BC
000013 C5                  A  2116    	PUSH	BC
000014 01000000            A  2117    	LD	BC,0
000018 C5                  A  2118    	PUSH	BC
000019 CD 00 00 00         A  2119    	CALL	_bitmap_sendData
00001D C1                  A  2120    	POP	BC
00001E C1                  A  2121    	POP	BC
00001F C1                  A  2122    	POP	BC
000020 C1                  A  2123    	POP	BC
                           A  2124    ;  173		bitmap_sendData(TILE_PLAYER, BITMAP
                           A  2125    .LINE 173
                           A  2126    
000021 01 00 04 00         A  2127    	LD	BC,_player_data
000025 C5                  A  2128    	PUSH	BC
000026 01100000            A  2129    	LD	BC,16
00002A C5                  A  2130    	PUSH	BC
00002B C5                  A  2131    	PUSH	BC
00002C 01010000            A  2132    	LD	BC,1
000030 C5                  A  2133    	PUSH	BC
000031 CD 00 00 00         A  2134    	CALL	_bitmap_sendData
000035 C1                  A  2135    	POP	BC
000036 C1                  A  2136    	POP	BC
000037 C1                  A  2137    	POP	BC
000038 C1                  A  2138    	POP	BC
                           A  2139    ;  174		bitmap_sendData(TILE_PLAYERONGOAL, 
                           A  2140    .LINE 174
                           A  2141    
000039 01 00 04 00         A  2142    	LD	BC,_player_data
00003D C5                  A  2143    	PUSH	BC
00003E 01100000            A  2144    	LD	BC,16
000042 C5                  A  2145    	PUSH	BC
000043 C5                  A  2146    	PUSH	BC
000044 01020000            A  2147    	LD	BC,2
000048 C5                  A  2148    	PUSH	BC
000049 CD 00 00 00         A  2149    	CALL	_bitmap_sendData
00004D C1                  A  2150    	POP	BC
00004E C1                  A  2151    	POP	BC
00004F C1                  A  2152    	POP	BC
000050 C1                  A  2153    	POP	BC
                           A  2154    ;  175		bitmap_sendData(TILE_BOX, BITMAP_WI
                           A  2155    .LINE 175
                           A  2156    
000051 01 00 0C 00         A  2157    	LD	BC,_box_data
000055 C5                  A  2158    	PUSH	BC
000056 01100000            A  2159    	LD	BC,16
00005A C5                  A  2160    	PUSH	BC
00005B C5                  A  2161    	PUSH	BC
00005C 01030000            A  2162    	LD	BC,3
000060 C5                  A  2163    	PUSH	BC
000061 CD 00 00 00         A  2164    	CALL	_bitmap_sendData
000065 C1                  A  2165    	POP	BC
000066 C1                  A  2166    	POP	BC
000067 C1                  A  2167    	POP	BC
000068 C1                  A  2168    	POP	BC
                           A  2169    ;  176		bitmap_sendData(TILE_BOXONGOAL, BIT
                           A  2170    .LINE 176
                           A  2171    
000069 01 00 10 00         A  2172    	LD	BC,_boxongoal_data
00006D C5                  A  2173    	PUSH	BC
00006E 01100000            A  2174    	LD	BC,16
000072 C5                  A  2175    	PUSH	BC
000073 C5                  A  2176    	PUSH	BC
000074 01040000            A  2177    	LD	BC,4
000078 C5                  A  2178    	PUSH	BC
000079 CD 00 00 00         A  2179    	CALL	_bitmap_sendData
00007D C1                  A  2180    	POP	BC
00007E C1                  A  2181    	POP	BC
00007F C1                  A  2182    	POP	BC
000080 C1                  A  2183    	POP	BC
                           A  2184    ;  177		bitmap_sendData(TILE_GOAL, BITMAP_W
                           A  2185    .LINE 177
                           A  2186    
000081 01 00 08 00         A  2187    	LD	BC,_goal_data
000085 C5                  A  2188    	PUSH	BC
000086 01100000            A  2189    	LD	BC,16
00008A C5                  A  2190    	PUSH	BC
00008B C5                  A  2191    	PUSH	BC
00008C 01050000            A  2192    	LD	BC,5
000090 C5                  A  2193    	PUSH	BC
000091 CD 00 00 00         A  2194    	CALL	_bitmap_sendData
000095 C1                  A  2195    	POP	BC
000096 C1                  A  2196    	POP	BC
000097 C1                  A  2197    	POP	BC
000098 C1                  A  2198    	POP	BC
                           A  2199    ;  178		bitmap_createSolidColor(TILE_FLOOR,
                           A  2200    .LINE 178
                           A  2201    
000099 01FF0000            A  2202    	LD	BC,255
00009D C5                  A  2203    	PUSH	BC
00009E 01000000            A  2204    	LD	BC,0
0000A2 C5                  A  2205    	PUSH	BC
0000A3 01100000            A  2206    	LD	BC,16
0000A7 C5                  A  2207    	PUSH	BC
0000A8 C5                  A  2208    	PUSH	BC
0000A9 01060000            A  2209    	LD	BC,6
0000AD C5                  A  2210    	PUSH	BC
0000AE CD 00 00 00         A  2211    	CALL	_bitmap_createSolidColor
0000B2 C1                  A  2212    	POP	BC
0000B3 C1                  A  2213    	POP	BC
0000B4 C1                  A  2214    	POP	BC
0000B5 C1                  A  2215    	POP	BC
0000B6 C1                  A  2216    	POP	BC
                           A  2217    ;  179		
                           A  2218    ;  180		return TRUE;
                           A  2219    .LINE 180
                           A  2220    
0000B7 3E01                A  2221    	LD	A,%1
                           A  2222    ;  181		
                           A  2223    ;  182	}
                           A  2224    .LINE 182
                           A  2225    
0000B9 DDF9                A  2226    	LD	SP,IX
0000BB DDE1                A  2227    	POP	IX
0000BD C9                  A  2228    	RET	
                           A  2229    
                           A  2230    
                           A  2231    ;**************************** _game_init ******
                           A  2232    ;Name                         Addr/Register   S
                           A  2233    ;_bitmap_createSolidColor            IMPORT  --
                           A  2234    ;_goal_data                          STATIC   1
                           A  2235    ;_boxongoal_data                     STATIC   1
                           A  2236    ;_box_data                           STATIC   1
                           A  2237    ;_player_data                        STATIC   1
                           A  2238    ;_wall_data                          STATIC   1
                           A  2239    ;_bitmap_sendData                    IMPORT  --
                           A  2240    
                           A  2241    
                           A  2242    ; Stack Frame Size: 6 (bytes)
                           A  2243    ;       Spill Code: 0 (instruction)
                           A  2244    
                           A  2245    
                           A  2246    .ENDFUNC "game_init",182,"_game_init"
                           A  2247    ;  183	void game_resetlevel(void)
                           A  2248    ;  184	{
0000BE                     A  2249    _game_resetlevel:
                           A  2250    .DEFINE "_game_resetlevel"
                           A  2251    
                           A  2252    .VALUE _game_resetlevel
                           A  2253    
                           A  2254    .CLASS 2
                           A  2255    
                           A  2256    .TYPE 65
                           A  2257    
                           A  2258    .ENDEF
                           A  2259    
                           A  2260    .BEGFUNC "game_resetlevel",184,"_game_resetleve
                           A  2261    
                           A  2262    .LINE 184
                           A  2263    
                           A  2264    .DEFINE "n"
                           A  2265    
                           A  2266    .CLASS 65
                           A  2267    
                           A  2268    .VALUE -1
                           A  2269    
                           A  2270    .TYPE 12
                           A  2271    
                           A  2272    .ENDEF
                           A  2273    
0000BE DDE5                A  2274    	PUSH	IX
0000C0 DD210000 00         A  2275    	LD	IX,0
0000C5 DD39                A  2276    	ADD	IX,SP
0000C7 3B                  A  2277    	DEC	SP
                           A  2278    ;  185		UINT8 x,y;
                           A  2279    ;  186		UINT8 spriteid;
                           A  2280    ;  187		UINT8 n;
                           A  2281    ;  188		
                           A  2282    ;  189		// disable all sprites
                           A  2283    ;  190		for(n = 0; n < spritenumber; n++)
                           A  2284    .LINE 190
                           A  2285    
0000C8 DD36FF00            A  2286    	LD	(IX+%FFFFFFFF),%0
0000CC 18 2A               A  2287    	JR	L_4
0000CE                     A  2288    L_2:
                           A  2289    ;  191		{
                           A  2290    ;  192			sprite_select(n);
                           A  2291    .LINE 192
                           A  2292    
0000CE DD4EFF              A  2293    	LD	C,(IX+%FFFFFFFF)
0000D1 0600                A  2294    	LD	B,%0
0000D3 C5                  A  2295    	PUSH	BC
0000D4 CD 00 00 00         A  2296    	CALL	_sprite_select
0000D8 C1                  A  2297    	POP	BC
                           A  2298    ;  193			sprite_hide();
                           A  2299    .LINE 193
                           A  2300    
0000D9 CD 00 00 00         A  2301    	CALL	_sprite_hide
                           A  2302    ;  194			sprite_setFrame(0);
                           A  2303    .LINE 194
                           A  2304    
0000DD 01000000            A  2305    	LD	BC,0
0000E1 C5                  A  2306    	PUSH	BC
0000E2 CD 00 00 00         A  2307    	CALL	_sprite_setFrame
0000E6 C1                  A  2308    	POP	BC
                           A  2309    ;  195			sprite_clearFrames_selected();
                           A  2310    .LINE 195
                           A  2311    
0000E7 CD 00 00 00         A  2312    	CALL	_sprite_clearFrames_selected
                           A  2313    ;  196			delayms(SENDDELAY);
                           A  2314    .LINE 196
                           A  2315    
0000EB 01010000            A  2316    	LD	BC,1
0000EF C5                  A  2317    	PUSH	BC
0000F0 CD 00 00 00         A  2318    	CALL	_delayms
0000F4 C1                  A  2319    	POP	BC
0000F5 DD34FF              A  2320    	INC	(IX+%FFFFFFFF)
                           A  2321    ;  197		}
0000F8                     A  2322    L_4:
                           A  2323    .LINE 197
                           A  2324    
0000F8 DD7EFF              A  2325    	LD	A,(IX+%FFFFFFFF)
0000FB 21 67 0D 00         A  2326    	LD	HL,_spritenumber
0000FF BE                  A  2327    	CP	A,(HL)
000100 38 CC               A  2328    	JR	C,L_2
                           A  2329    ;  198		sprite_activateTotal(0);
                           A  2330    .LINE 198
                           A  2331    
000102 01000000            A  2332    	LD	BC,0
000106 C5                  A  2333    	PUSH	BC
000107 CD 00 00 00         A  2334    	CALL	_sprite_activateTotal
00010B C1                  A  2335    	POP	BC
                           A  2336    ;  199		spritenumber = 0;
                           A  2337    .LINE 199
                           A  2338    
00010C AF                  A  2339    	XOR	A,A
00010D 32 67 0D 00         A  2340    	LD	(_spritenumber),A
                           A  2341    ;  200	
                           A  2342    ;  201		// reset current level, everything 
                           A  2343    ;  202		memset(&currentlevel, 0, sizeof(str
                           A  2344    .LINE 202
                           A  2345    
000111 01B70400            A  2346    	LD	BC,1207
000115 C5                  A  2347    	PUSH	BC
000116 01000000            A  2348    	LD	BC,0
00011A C5                  A  2349    	PUSH	BC
00011B 01 B0 08 00         A  2350    	LD	BC,_currentlevel
00011F C5                  A  2351    	PUSH	BC
000120 CD 00 00 00         A  2352    	CALL	_memset
000124 C1                  A  2353    	POP	BC
000125 C1                  A  2354    	POP	BC
000126 C1                  A  2355    	POP	BC
                           A  2356    ;  203		
                           A  2357    ;  204		// reset all sprite positions and c
                           A  2358    ;  205		memset(sprites, 255, MAXHEIGHT*MAXW
                           A  2359    .LINE 205
                           A  2360    
000127 01B00400            A  2361    	LD	BC,1200
00012B C5                  A  2362    	PUSH	BC
00012C 01FF0000            A  2363    	LD	BC,255
000130 C5                  A  2364    	PUSH	BC
000131 01 00 04 00         A  2365    	LD	BC,_sprites
000135 C5                  A  2366    	PUSH	BC
000136 CD 00 00 00         A  2367    	CALL	_memset
00013A C1                  A  2368    	POP	BC
00013B C1                  A  2369    	POP	BC
00013C C1                  A  2370    	POP	BC
                           A  2371    ;  206	}
                           A  2372    .LINE 206
                           A  2373    
00013D DDF9                A  2374    	LD	SP,IX
00013F DDE1                A  2375    	POP	IX
000141 C9                  A  2376    	RET	
                           A  2377    
                           A  2378    
                           A  2379    ;**************************** _game_resetlevel 
                           A  2380    ;Name                         Addr/Register   S
                           A  2381    ;_sprites                            STATIC   1
                           A  2382    ;_currentlevel                       STATIC   1
                           A  2383    ;_memset                             IMPORT  --
                           A  2384    ;_sprite_activateTotal               IMPORT  --
                           A  2385    ;_spritenumber                       STATIC    
                           A  2386    ;_delayms                            IMPORT  --
                           A  2387    ;_sprite_clearFrames_selected        IMPORT  --
                           A  2388    ;_sprite_setFrame                    IMPORT  --
                           A  2389    ;_sprite_hide                        IMPORT  --
                           A  2390    ;_sprite_select                      IMPORT  --
                           A  2391    ;n                                     IX-1    
                           A  2392    
                           A  2393    
                           A  2394    ; Stack Frame Size: 7 (bytes)
                           A  2395    ;       Spill Code: 0 (instruction)
                           A  2396    
                           A  2397    
                           A  2398    .ENDFUNC "game_resetlevel",206,"_game_resetleve
                           A  2399    ;  207	
                           A  2400    ;  208	BOOL canmove(UINT16 xn1, UINT16 yn1, UI
                           A  2401    ;  209	{
000142                     A  2402    _canmove:
                           A  2403    .DEFINE "_canmove"
                           A  2404    
                           A  2405    .VALUE _canmove
                           A  2406    
                           A  2407    .CLASS 2
                           A  2408    
                           A  2409    .TYPE 76
                           A  2410    
                           A  2411    .ENDEF
                           A  2412    
                           A  2413    .BEGFUNC "canmove",209,"_canmove"
                           A  2414    
                           A  2415    .LINE 209
                           A  2416    
                           A  2417    .DEFINE "xn1"
                           A  2418    
                           A  2419    .CLASS 65
                           A  2420    
                           A  2421    .VALUE 6
                           A  2422    
                           A  2423    .TYPE 13
                           A  2424    
                           A  2425    .ENDEF
                           A  2426    
                           A  2427    .DEFINE "yn1"
                           A  2428    
                           A  2429    .CLASS 65
                           A  2430    
                           A  2431    .VALUE 9
                           A  2432    
                           A  2433    .TYPE 13
                           A  2434    
                           A  2435    .ENDEF
                           A  2436    
                           A  2437    .DEFINE "xn2"
                           A  2438    
                           A  2439    .CLASS 65
                           A  2440    
                           A  2441    .VALUE 12
                           A  2442    
                           A  2443    .TYPE 13
                           A  2444    
                           A  2445    .ENDEF
                           A  2446    
                           A  2447    .DEFINE "yn2"
                           A  2448    
                           A  2449    .CLASS 65
                           A  2450    
                           A  2451    .VALUE 15
                           A  2452    
                           A  2453    .TYPE 13
                           A  2454    
                           A  2455    .ENDEF
                           A  2456    
                           A  2457    .DEFINE "n1"
                           A  2458    
                           A  2459    .CLASS 65
                           A  2460    
                           A  2461    .VALUE -1
                           A  2462    
                           A  2463    .TYPE 12
                           A  2464    
                           A  2465    .ENDEF
                           A  2466    
                           A  2467    .DEFINE "n2"
                           A  2468    
                           A  2469    .CLASS 65
                           A  2470    
                           A  2471    .VALUE -2
                           A  2472    
                           A  2473    .TYPE 12
                           A  2474    
                           A  2475    .ENDEF
                           A  2476    
000142 DDE5                A  2477    	PUSH	IX
000144 DD210000 00         A  2478    	LD	IX,0
000149 DD39                A  2479    	ADD	IX,SP
00014B 3B                  A  2480    	DEC	SP
00014C 3B                  A  2481    	DEC	SP
                           A  2482    ;  210		BOOL can = FALSE;
                           A  2483    ;  211		UINT8 n1, n2;
                           A  2484    ;  212		
                           A  2485    ;  213		n1 = currentlevel.data[yn1][xn1];
                           A  2486    .LINE 213
                           A  2487    
00014D DD0709              A  2488    	LD	BC,(IX+%9)
000150 CD 00 00 00         A  2489    	CALL	__stoiu
000154 3E28                A  2490    	LD	A,%28
000156 CD 00 00 00         A  2491    	CALL	__imul_b
00015A 01 B7 08 00         A  2492    	LD	BC,_currentlevel+7
00015E 09                  A  2493    	ADD	HL,BC
00015F E5D1                A  2494    	LD	DE,HL
000161 DD0706              A  2495    	LD	BC,(IX+%6)
000164 CD 00 00 00         A  2496    	CALL	__stoiu
000168 19                  A  2497    	ADD	HL,DE
000169 7E                  A  2498    	LD	A,(HL)
00016A DD77FF              A  2499    	LD	(IX+%FFFFFFFF),A
                           A  2500    ;  214		n2 = currentlevel.data[yn2][xn2];
                           A  2501    .LINE 214
                           A  2502    
00016D DD070F              A  2503    	LD	BC,(IX+%F)
000170 CD 00 00 00         A  2504    	CALL	__stoiu
000174 3E28                A  2505    	LD	A,%28
000176 CD 00 00 00         A  2506    	CALL	__imul_b
00017A 01 B7 08 00         A  2507    	LD	BC,_currentlevel+7
00017E 09                  A  2508    	ADD	HL,BC
00017F E5D1                A  2509    	LD	DE,HL
000181 DD070C              A  2510    	LD	BC,(IX+%C)
000184 CD 00 00 00         A  2511    	CALL	__stoiu
000188 19                  A  2512    	ADD	HL,DE
000189 7E                  A  2513    	LD	A,(HL)
00018A DD77FE              A  2514    	LD	(IX+%FFFFFFFE),A
                           A  2515    ;  215		
                           A  2516    ;  216		switch(n1)
                           A  2517    .LINE 216
                           A  2518    
00018D DD7EFF              A  2519    	LD	A,(IX+%FFFFFFFF)
000190 B7ED62              A  2520    	UEXT	HL
000193 6F                  A  2521    	LD	L,A
000194 E5C1                A  2522    	LD	BC,HL
000196                     A  2523    L__3:
000196 11230000            A  2524    	LD	DE,35
00019A B7                  A  2525    	OR	A,A
00019B ED52                A  2526    	SBC	HL,DE
00019D 28 23               A  2527    	JR	Z,L_7
00019F 21230000            A  2528    	LD	HL,35
0001A3 B7                  A  2529    	OR	A,A
0001A4 ED42                A  2530    	SBC	HL,BC
0001A6 38 0D               A  2531    	JR	C,L__5
0001A8 11200000            A  2532    	LD	DE,32
0001AC C5E1                A  2533    	LD	HL,BC
0001AE B7                  A  2534    	OR	A,A
0001AF ED52                A  2535    	SBC	HL,DE
0001B1 28 12               A  2536    	JR	Z,L_8
0001B3 18 14               A  2537    	JR	L_13
0001B5                     A  2538    L__5:
0001B5 112E0000            A  2539    	LD	DE,46
0001B9 C5E1                A  2540    	LD	HL,BC
0001BB B7                  A  2541    	OR	A,A
0001BC ED52                A  2542    	SBC	HL,DE
0001BE 28 05               A  2543    	JR	Z,L_9
0001C0 18 07               A  2544    	JR	L_13
                           A  2545    ;  217		{
                           A  2546    ;  218			case CHAR_WALL:
0001C2                     A  2547    L_7:
                           A  2548    .LINE 218
                           A  2549    
                           A  2550    ;  219				return FALSE;
                           A  2551    .LINE 219
                           A  2552    
0001C2 AF                  A  2553    	XOR	A,A
0001C3 18 4F               A  2554    	JR	L_15
                           A  2555    ;  220				break;
                           A  2556    ;  221			case CHAR_FLOOR:
0001C5                     A  2557    L_8:
                           A  2558    .LINE 221
                           A  2559    
                           A  2560    ;  222			case CHAR_GOAL:
0001C5                     A  2561    L_9:
                           A  2562    .LINE 222
                           A  2563    
                           A  2564    ;  223				return TRUE;
                           A  2565    .LINE 223
                           A  2566    
0001C5 3E01                A  2567    	LD	A,%1
0001C7 18 4B               A  2568    	JR	L_15
                           A  2569    ;  224				break;
                           A  2570    ;  225		}
0001C9                     A  2571    L_13:
                           A  2572    .LINE 225
                           A  2573    
                           A  2574    ;  226		// either BOX or BOXONGOAL next to 
                           A  2575    ;  227		switch(n2)
                           A  2576    .LINE 227
                           A  2577    
0001C9 DD7EFE              A  2578    	LD	A,(IX+%FFFFFFFE)
0001CC B7ED62              A  2579    	UEXT	HL
0001CF 6F                  A  2580    	LD	L,A
0001D0 E5C1                A  2581    	LD	BC,HL
0001D2                     A  2582    L__8:
0001D2 112A0000            A  2583    	LD	DE,42
0001D6 B7                  A  2584    	OR	A,A
0001D7 ED52                A  2585    	SBC	HL,DE
0001D9 28 34               A  2586    	JR	Z,L_12
0001DB 212A0000            A  2587    	LD	HL,42
0001DF B7                  A  2588    	OR	A,A
0001E0 ED42                A  2589    	SBC	HL,BC
0001E2 38 2E               A  2590    	JR	C,L_14
0001E4 11230000            A  2591    	LD	DE,35
0001E8 C5E1                A  2592    	LD	HL,BC
0001EA B7                  A  2593    	OR	A,A
0001EB ED52                A  2594    	SBC	HL,DE
0001ED 38 23               A  2595    	JR	C,L_14
0001EF 21240000            A  2596    	LD	HL,36
0001F3 B7                  A  2597    	OR	A,A
0001F4 ED42                A  2598    	SBC	HL,BC
0001F6 38 1A               A  2599    	JR	C,L_14
0001F8 C5E1                A  2600    	LD	HL,BC
0001FA E5C1                A  2601    	LD	BC,HL
0001FC 29                  A  2602    	ADD	HL,HL
0001FD 09                  A  2603    	ADD	HL,BC
0001FE 01 9D 01 00         A  2604    	LD	BC,L__7-105
000202 09                  A  2605    	ADD	HL,BC
000203 ED27                A  2606    	LD	HL,(HL)
000205 E9                  A  2607    	JP	(HL)
000206                     A  2608    L__7:
000206 0C0200              A  2609    	DW24	L_10	
                           A  2610    
000209 0F0200              A  2611    	DW24	L_11	
                           A  2612    
                           A  2613    ;  228		{
                           A  2614    ;  229			case CHAR_WALL:
00020C                     A  2615    L_10:
                           A  2616    .LINE 229
                           A  2617    
                           A  2618    ;  230				return FALSE;
                           A  2619    .LINE 230
                           A  2620    
00020C AF                  A  2621    	XOR	A,A
00020D 18 05               A  2622    	JR	L_15
                           A  2623    ;  231				break;
                           A  2624    ;  232			case CHAR_BOX:
00020F                     A  2625    L_11:
                           A  2626    .LINE 232
                           A  2627    
                           A  2628    ;  233			case CHAR_BOXONGOAL:
00020F                     A  2629    L_12:
                           A  2630    .LINE 233
                           A  2631    
                           A  2632    ;  234				return FALSE;
                           A  2633    .LINE 234
                           A  2634    
00020F AF                  A  2635    	XOR	A,A
000210 18 02               A  2636    	JR	L_15
                           A  2637    ;  235				break;
                           A  2638    ;  236		}
000212                     A  2639    L_14:
                           A  2640    .LINE 236
                           A  2641    
                           A  2642    ;  237		// only FLOOR or empty GOAL remaini
                           A  2643    ;  238		return TRUE;
                           A  2644    .LINE 238
                           A  2645    
000212 3E01                A  2646    	LD	A,%1
                           A  2647    ;  239	}
000214                     A  2648    L_15:
                           A  2649    .LINE 239
                           A  2650    
000214 DDF9                A  2651    	LD	SP,IX
000216 DDE1                A  2652    	POP	IX
000218 C9                  A  2653    	RET	
                           A  2654    
                           A  2655    
                           A  2656    ;**************************** _canmove ********
                           A  2657    ;Name                         Addr/Register   S
                           A  2658    ;_currentlevel                       STATIC   1
                           A  2659    ;n2                                    IX-2    
                           A  2660    ;n1                                    IX-1    
                           A  2661    ;yn2                                  IX+15    
                           A  2662    ;xn2                                  IX+12    
                           A  2663    ;yn1                                   IX+9    
                           A  2664    ;xn1                                   IX+6    
                           A  2665    
                           A  2666    
                           A  2667    ; Stack Frame Size: 20 (bytes)
                           A  2668    ;       Spill Code: 0 (instruction)
                           A  2669    
                           A  2670    
                           A  2671    .ENDFUNC "canmove",239,"_canmove"
                           A  2672    ;  240	
                           A  2673    ;  241	void move_sprites(UINT16 xn1, UINT16 yn
                           A  2674    ;  242	{
000219                     A  2675    _move_sprites:
                           A  2676    .DEFINE "_move_sprites"
                           A  2677    
                           A  2678    .VALUE _move_sprites
                           A  2679    
                           A  2680    .CLASS 2
                           A  2681    
                           A  2682    .TYPE 65
                           A  2683    
                           A  2684    .ENDEF
                           A  2685    
                           A  2686    .BEGFUNC "move_sprites",242,"_move_sprites"
                           A  2687    
                           A  2688    .LINE 242
                           A  2689    
                           A  2690    .DEFINE "xn1"
                           A  2691    
                           A  2692    .CLASS 65
                           A  2693    
                           A  2694    .VALUE 6
                           A  2695    
                           A  2696    .TYPE 13
                           A  2697    
                           A  2698    .ENDEF
                           A  2699    
                           A  2700    .DEFINE "yn1"
                           A  2701    
                           A  2702    .CLASS 65
                           A  2703    
                           A  2704    .VALUE 9
                           A  2705    
                           A  2706    .TYPE 13
                           A  2707    
                           A  2708    .ENDEF
                           A  2709    
                           A  2710    .DEFINE "xn2"
                           A  2711    
                           A  2712    .CLASS 65
                           A  2713    
                           A  2714    .VALUE 12
                           A  2715    
                           A  2716    .TYPE 13
                           A  2717    
                           A  2718    .ENDEF
                           A  2719    
                           A  2720    .DEFINE "yn2"
                           A  2721    
                           A  2722    .CLASS 65
                           A  2723    
                           A  2724    .VALUE 15
                           A  2725    
                           A  2726    .TYPE 13
                           A  2727    
                           A  2728    .ENDEF
                           A  2729    
                           A  2730    .DEFINE "spriteid"
                           A  2731    
                           A  2732    .CLASS 65
                           A  2733    
                           A  2734    .VALUE -1
                           A  2735    
                           A  2736    .TYPE 12
                           A  2737    
                           A  2738    .ENDEF
                           A  2739    
                           A  2740    .DEFINE "n"
                           A  2741    
                           A  2742    .CLASS 65
                           A  2743    
                           A  2744    .VALUE -2
                           A  2745    
                           A  2746    .TYPE 12
                           A  2747    
                           A  2748    .ENDEF
                           A  2749    
                           A  2750    .DEFINE "dx"
                           A  2751    
                           A  2752    .CLASS 65
                           A  2753    
                           A  2754    .VALUE -4
                           A  2755    
                           A  2756    .TYPE 3
                           A  2757    
                           A  2758    .ENDEF
                           A  2759    
                           A  2760    .DEFINE "dy"
                           A  2761    
                           A  2762    .CLASS 65
                           A  2763    
                           A  2764    .VALUE -6
                           A  2765    
                           A  2766    .TYPE 3
                           A  2767    
                           A  2768    .ENDEF
                           A  2769    
                           A  2770    .DEFINE "n2"
                           A  2771    
                           A  2772    .CLASS 65
                           A  2773    
                           A  2774    .VALUE -7
                           A  2775    
                           A  2776    .TYPE 12
                           A  2777    
                           A  2778    .ENDEF
                           A  2779    
000219 DDE5                A  2780    	PUSH	IX
00021B DD210000 00         A  2781    	LD	IX,0
000220 DD39                A  2782    	ADD	IX,SP
000222 C5                  A  2783    	PUSH	BC
000223 C5                  A  2784    	PUSH	BC
000224 3B                  A  2785    	DEC	SP
                           A  2786    ;  243		// move can happen, no need to chec
                           A  2787    ;  244		UINT8 spriteid = sprites[yn1][xn1];
                           A  2788    .LINE 244
                           A  2789    
000225 DD0709              A  2790    	LD	BC,(IX+%9)
000228 CD 00 00 00         A  2791    	CALL	__stoiu
00022C 3E28                A  2792    	LD	A,%28
00022E CD 00 00 00         A  2793    	CALL	__imul_b
000232 01 00 04 00         A  2794    	LD	BC,_sprites
000236 09                  A  2795    	ADD	HL,BC
000237 E5D1                A  2796    	LD	DE,HL
000239 DD0706              A  2797    	LD	BC,(IX+%6)
00023C CD 00 00 00         A  2798    	CALL	__stoiu
000240 19                  A  2799    	ADD	HL,DE
000241 7E                  A  2800    	LD	A,(HL)
000242 DD77FF              A  2801    	LD	(IX+%FFFFFFFF),A
                           A  2802    ;  245		UINT8 n;
                           A  2803    ;  246		INT16 dx, dy;
                           A  2804    ;  247		UINT8 n2;
                           A  2805    ;  248			
                           A  2806    ;  249		dx = xn2 - xn1;
                           A  2807    .LINE 249
                           A  2808    
000245 DD0706              A  2809    	LD	BC,(IX+%6)
000248 DD270C              A  2810    	LD	HL,(IX+%C)
00024B B7                  A  2811    	OR	A,A
00024C 40ED42              A  2812    	SBC.SIS	HL,BC
00024F DD75FC              A  2813    	LD	(IX+%FFFFFFFC),L
000252 DD74FD              A  2814    	LD	(IX+%FFFFFFFD),H
                           A  2815    ;  250		dy = yn2 - yn1;
                           A  2816    .LINE 250
                           A  2817    
000255 DD0709              A  2818    	LD	BC,(IX+%9)
000258 DD270F              A  2819    	LD	HL,(IX+%F)
00025B B7                  A  2820    	OR	A,A
00025C 40ED42              A  2821    	SBC.SIS	HL,BC
00025F DD75FA              A  2822    	LD	(IX+%FFFFFFFA),L
000262 DD74FB              A  2823    	LD	(IX+%FFFFFFFB),H
                           A  2824    ;  251		
                           A  2825    ;  252		for(n = 0; n < BITMAP_WIDTH; n++)
                           A  2826    .LINE 252
                           A  2827    
000265 DD36FE00            A  2828    	LD	(IX+%FFFFFFFE),%0
000269 18 45               A  2829    	JR	L_21
00026B                     A  2830    L_19:
                           A  2831    ;  253		{
                           A  2832    ;  254			if(spriteid != NOSPRITE)
                           A  2833    .LINE 254
                           A  2834    
00026B DD7EFF              A  2835    	LD	A,(IX+%FFFFFFFF)
00026E FEFF                A  2836    	CP	A,%FF
000270 28 19               A  2837    	JR	Z,L_18
                           A  2838    ;  255			{
                           A  2839    ;  256				sprite_select(spriteid);
                           A  2840    .LINE 256
                           A  2841    
000272 DD4EFF              A  2842    	LD	C,(IX+%FFFFFFFF)
000275 0600                A  2843    	LD	B,%0
000277 C5                  A  2844    	PUSH	BC
000278 CD 00 00 00         A  2845    	CALL	_sprite_select
00027C C1                  A  2846    	POP	BC
                           A  2847    ;  257				sprite_moveBy(dx, dy);
                           A  2848    .LINE 257
                           A  2849    
00027D DD07FA              A  2850    	LD	BC,(IX+%FFFFFFFA)
000280 C5                  A  2851    	PUSH	BC
000281 DD07FC              A  2852    	LD	BC,(IX+%FFFFFFFC)
000284 C5                  A  2853    	PUSH	BC
000285 CD 00 00 00         A  2854    	CALL	_sprite_moveBy
000289 C1                  A  2855    	POP	BC
00028A C1                  A  2856    	POP	BC
                           A  2857    ;  258			}
00028B                     A  2858    L_18:
                           A  2859    .LINE 258
                           A  2860    
                           A  2861    ;  259			sprite_select(0);
                           A  2862    .LINE 259
                           A  2863    
00028B 01000000            A  2864    	LD	BC,0
00028F C5                  A  2865    	PUSH	BC
000290 CD 00 00 00         A  2866    	CALL	_sprite_select
000294 C1                  A  2867    	POP	BC
                           A  2868    ;  260			sprite_moveBy(dx, dy);
                           A  2869    .LINE 260
                           A  2870    
000295 DD07FA              A  2871    	LD	BC,(IX+%FFFFFFFA)
000298 C5                  A  2872    	PUSH	BC
000299 DD07FC              A  2873    	LD	BC,(IX+%FFFFFFFC)
00029C C5                  A  2874    	PUSH	BC
00029D CD 00 00 00         A  2875    	CALL	_sprite_moveBy
0002A1 C1                  A  2876    	POP	BC
0002A2 C1                  A  2877    	POP	BC
                           A  2878    ;  261			delayms(FRAMEDELAY);
                           A  2879    .LINE 261
                           A  2880    
0002A3 010F0000            A  2881    	LD	BC,15
0002A7 C5                  A  2882    	PUSH	BC
0002A8 CD 00 00 00         A  2883    	CALL	_delayms
0002AC C1                  A  2884    	POP	BC
0002AD DD34FE              A  2885    	INC	(IX+%FFFFFFFE)
                           A  2886    ;  262		}
0002B0                     A  2887    L_21:
                           A  2888    .LINE 262
                           A  2889    
0002B0 DD7EFE              A  2890    	LD	A,(IX+%FFFFFFFE)
0002B3 FE10                A  2891    	CP	A,%10
0002B5 38 B4               A  2892    	JR	C,L_19
                           A  2893    ;  263	
                           A  2894    ;  264		// set destination sprite frame
                           A  2895    ;  265		if(spriteid != NOSPRITE)
                           A  2896    .LINE 265
                           A  2897    
0002B7 DD7EFF              A  2898    	LD	A,(IX+%FFFFFFFF)
0002BA FEFF                A  2899    	CP	A,%FF
0002BC 28 64               A  2900    	JR	Z,L_27
                           A  2901    ;  266		{
                           A  2902    ;  267			sprite_select(spriteid);
                           A  2903    .LINE 267
                           A  2904    
0002BE DD4EFF              A  2905    	LD	C,(IX+%FFFFFFFF)
0002C1 0600                A  2906    	LD	B,%0
0002C3 C5                  A  2907    	PUSH	BC
0002C4 CD 00 00 00         A  2908    	CALL	_sprite_select
0002C8 C1                  A  2909    	POP	BC
                           A  2910    ;  268			// Check if the sprite moved to
                           A  2911    ;  269			n2 = currentlevel.data[yn2][xn2
                           A  2912    .LINE 269
                           A  2913    
0002C9 DD070F              A  2914    	LD	BC,(IX+%F)
0002CC CD 00 00 00         A  2915    	CALL	__stoiu
0002D0 3E28                A  2916    	LD	A,%28
0002D2 CD 00 00 00         A  2917    	CALL	__imul_b
0002D6 01 B7 08 00         A  2918    	LD	BC,_currentlevel+7
0002DA 09                  A  2919    	ADD	HL,BC
0002DB E5D1                A  2920    	LD	DE,HL
0002DD DD070C              A  2921    	LD	BC,(IX+%C)
0002E0 CD 00 00 00         A  2922    	CALL	__stoiu
0002E4 19                  A  2923    	ADD	HL,DE
0002E5 7E                  A  2924    	LD	A,(HL)
0002E6 DD77F9              A  2925    	LD	(IX+%FFFFFFF9),A
                           A  2926    ;  270			switch(n2)
                           A  2927    .LINE 270
                           A  2928    
0002E9 B7ED62              A  2929    	UEXT	HL
0002EC 6F                  A  2930    	LD	L,A
0002ED E5C1                A  2931    	LD	BC,HL
0002EF                     A  2932    L__17:
0002EF 112E0000            A  2933    	LD	DE,46
0002F3 B7                  A  2934    	OR	A,A
0002F4 ED52                A  2935    	SBC	HL,DE
0002F6 28 20               A  2936    	JR	Z,L_23
0002F8 212E0000            A  2937    	LD	HL,46
0002FC B7                  A  2938    	OR	A,A
0002FD ED42                A  2939    	SBC	HL,BC
0002FF 38 21               A  2940    	JR	C,L_27
000301 11200000            A  2941    	LD	DE,32
000305 C5E1                A  2942    	LD	HL,BC
000307 B7                  A  2943    	OR	A,A
000308 ED52                A  2944    	SBC	HL,DE
00030A 20 16               A  2945    	JR	NZ,L_27
                           A  2946    ;  271			{
                           A  2947    ;  272				case CHAR_FLOOR:
                           A  2948    .LINE 272
                           A  2949    
                           A  2950    ;  273					sprite_setFrame(0);
                           A  2951    .LINE 273
                           A  2952    
00030C 01000000            A  2953    	LD	BC,0
000310 C5                  A  2954    	PUSH	BC
000311 CD 00 00 00         A  2955    	CALL	_sprite_setFrame
000315 C1                  A  2956    	POP	BC
                           A  2957    ;  274					break;
                           A  2958    .LINE 274
                           A  2959    
000316 18 0A               A  2960    	JR	L_27
                           A  2961    ;  275				case CHAR_GOAL:
000318                     A  2962    L_23:
                           A  2963    .LINE 275
                           A  2964    
                           A  2965    ;  276					sprite_setFrame(1);
                           A  2966    .LINE 276
                           A  2967    
000318 01010000            A  2968    	LD	BC,1
00031C C5                  A  2969    	PUSH	BC
00031D CD 00 00 00         A  2970    	CALL	_sprite_setFrame
000321 C1                  A  2971    	POP	BC
                           A  2972    ;  277					break;
                           A  2973    ;  278			}
                           A  2974    ;  279		}
000322                     A  2975    L_27:
                           A  2976    .LINE 279
                           A  2977    
                           A  2978    ;  280		// update sprite number matrix
                           A  2979    ;  281		if(spriteid != NOSPRITE)
                           A  2980    .LINE 281
                           A  2981    
000322 DD7EFF              A  2982    	LD	A,(IX+%FFFFFFFF)
000325 FEFF                A  2983    	CP	A,%FF
000327 28 3F               A  2984    	JR	Z,L_28
                           A  2985    ;  282		{
                           A  2986    ;  283			// player shoves a box here
                           A  2987    ;  284			sprites[yn2][xn2] = sprites[yn1
                           A  2988    .LINE 284
                           A  2989    
000329 DD0709              A  2990    	LD	BC,(IX+%9)
00032C CD 00 00 00         A  2991    	CALL	__stoiu
000330 3E28                A  2992    	LD	A,%28
000332 CD 00 00 00         A  2993    	CALL	__imul_b
000336 01 00 04 00         A  2994    	LD	BC,_sprites
00033A 09                  A  2995    	ADD	HL,BC
00033B E5D1                A  2996    	LD	DE,HL
00033D DD0706              A  2997    	LD	BC,(IX+%6)
000340 CD 00 00 00         A  2998    	CALL	__stoiu
000344 19                  A  2999    	ADD	HL,DE
000345 E5FDE1              A  3000    	LD	IY,HL
000348 DD070F              A  3001    	LD	BC,(IX+%F)
00034B CD 00 00 00         A  3002    	CALL	__stoiu
00034F 3E28                A  3003    	LD	A,%28
000351 CD 00 00 00         A  3004    	CALL	__imul_b
000355 01 00 04 00         A  3005    	LD	BC,_sprites
000359 09                  A  3006    	ADD	HL,BC
00035A E5D1                A  3007    	LD	DE,HL
00035C DD070C              A  3008    	LD	BC,(IX+%C)
00035F CD 00 00 00         A  3009    	CALL	__stoiu
000363 19                  A  3010    	ADD	HL,DE
000364 FD7E00              A  3011    	LD	A,(IY)
000367 77                  A  3012    	LD	(HL),A
                           A  3013    ;  285		}
000368                     A  3014    L_28:
                           A  3015    .LINE 285
                           A  3016    
                           A  3017    ;  286		sprites[yn1][xn1] = NOSPRITE; // pl
                           A  3018    .LINE 286
                           A  3019    
000368 DD0709              A  3020    	LD	BC,(IX+%9)
00036B CD 00 00 00         A  3021    	CALL	__stoiu
00036F 3E28                A  3022    	LD	A,%28
000371 CD 00 00 00         A  3023    	CALL	__imul_b
000375 01 00 04 00         A  3024    	LD	BC,_sprites
000379 09                  A  3025    	ADD	HL,BC
00037A E5D1                A  3026    	LD	DE,HL
00037C DD0706              A  3027    	LD	BC,(IX+%6)
00037F CD 00 00 00         A  3028    	CALL	__stoiu
000383 19                  A  3029    	ADD	HL,DE
000384 36FF                A  3030    	LD	(HL),%FF
                           A  3031    ;  287		sprites[currentlevel.ypos][currentl
                           A  3032    .LINE 287
                           A  3033    
000386 3A B1 08 00         A  3034    	LD	A,(_currentlevel+1)
00038A B7ED62              A  3035    	UEXT	HL
00038D 6F                  A  3036    	LD	L,A
00038E 3E28                A  3037    	LD	A,%28
000390 CD 00 00 00         A  3038    	CALL	__imul_b
000394 01 00 04 00         A  3039    	LD	BC,_sprites
000398 09                  A  3040    	ADD	HL,BC
000399 E5C1                A  3041    	LD	BC,HL
00039B 3A B0 08 00         A  3042    	LD	A,(_currentlevel)
00039F B7ED62              A  3043    	UEXT	HL
0003A2 6F                  A  3044    	LD	L,A
0003A3 09                  A  3045    	ADD	HL,BC
0003A4 36FF                A  3046    	LD	(HL),%FF
                           A  3047    ;  288	}
                           A  3048    .LINE 288
                           A  3049    
0003A6 DDF9                A  3050    	LD	SP,IX
0003A8 DDE1                A  3051    	POP	IX
0003AA C9                  A  3052    	RET	
                           A  3053    
                           A  3054    
                           A  3055    ;**************************** _move_sprites ***
                           A  3056    ;Name                         Addr/Register   S
                           A  3057    ;_sprite_setFrame                    IMPORT  --
                           A  3058    ;_currentlevel                       STATIC   1
                           A  3059    ;_delayms                            IMPORT  --
                           A  3060    ;_sprite_moveBy                      IMPORT  --
                           A  3061    ;_sprite_select                      IMPORT  --
                           A  3062    ;_sprites                            STATIC   1
                           A  3063    ;n2                                    IX-7    
                           A  3064    ;dy                                    IX-6    
                           A  3065    ;dx                                    IX-4    
                           A  3066    ;n                                     IX-2    
                           A  3067    ;spriteid                              IX-1    
                           A  3068    ;yn2                                  IX+15    
                           A  3069    ;xn2                                  IX+12    
                           A  3070    ;yn1                                   IX+9    
                           A  3071    ;xn1                                   IX+6    
                           A  3072    
                           A  3073    
                           A  3074    ; Stack Frame Size: 25 (bytes)
                           A  3075    ;       Spill Code: 0 (instruction)
                           A  3076    
                           A  3077    
                           A  3078    .ENDFUNC "move_sprites",288,"_move_sprites"
                           A  3079    ;  289	
                           A  3080    ;  290	void move_updatelevel(UINT16 xn1, UINT1
                           A  3081    ;  291	{
0003AB                     A  3082    _move_updatelevel:
                           A  3083    .DEFINE "_move_updatelevel"
                           A  3084    
                           A  3085    .VALUE _move_updatelevel
                           A  3086    
                           A  3087    .CLASS 2
                           A  3088    
                           A  3089    .TYPE 65
                           A  3090    
                           A  3091    .ENDEF
                           A  3092    
                           A  3093    .BEGFUNC "move_updatelevel",291,"_move_updatele
                           A  3094    
                           A  3095    .LINE 291
                           A  3096    
                           A  3097    .DEFINE "xn1"
                           A  3098    
                           A  3099    .CLASS 65
                           A  3100    
                           A  3101    .VALUE 6
                           A  3102    
                           A  3103    .TYPE 13
                           A  3104    
                           A  3105    .ENDEF
                           A  3106    
                           A  3107    .DEFINE "yn1"
                           A  3108    
                           A  3109    .CLASS 65
                           A  3110    
                           A  3111    .VALUE 9
                           A  3112    
                           A  3113    .TYPE 13
                           A  3114    
                           A  3115    .ENDEF
                           A  3116    
                           A  3117    .DEFINE "xn2"
                           A  3118    
                           A  3119    .CLASS 65
                           A  3120    
                           A  3121    .VALUE 12
                           A  3122    
                           A  3123    .TYPE 13
                           A  3124    
                           A  3125    .ENDEF
                           A  3126    
                           A  3127    .DEFINE "yn2"
                           A  3128    
                           A  3129    .CLASS 65
                           A  3130    
                           A  3131    .VALUE 15
                           A  3132    
                           A  3133    .TYPE 13
                           A  3134    
                           A  3135    .ENDEF
                           A  3136    
                           A  3137    .DEFINE "onlyplayermoves"
                           A  3138    
                           A  3139    .CLASS 65
                           A  3140    
                           A  3141    .VALUE -4
                           A  3142    
                           A  3143    .TYPE 12
                           A  3144    
                           A  3145    .ENDEF
                           A  3146    
                           A  3147    .DEFINE "n1"
                           A  3148    
                           A  3149    .CLASS 65
                           A  3150    
                           A  3151    .VALUE -5
                           A  3152    
                           A  3153    .TYPE 12
                           A  3154    
                           A  3155    .ENDEF
                           A  3156    
                           A  3157    .DEFINE "n2"
                           A  3158    
                           A  3159    .CLASS 65
                           A  3160    
                           A  3161    .VALUE -21
                           A  3162    
                           A  3163    .TYPE 12
                           A  3164    
                           A  3165    .ENDEF
                           A  3166    
0003AB DDE5                A  3167    	PUSH	IX
0003AD DD210000 00         A  3168    	LD	IX,0
0003B2 DD39                A  3169    	ADD	IX,SP
0003B4 ED22E5              A  3170    	LEA	HL,IX+%FFFFFFE5
0003B7 F9                  A  3171    	LD	SP,HL
                           A  3172    ;  292		// move can happen, no need to chec
                           A  3173    ;  293		UINT8 n1, n2;
                           A  3174    ;  294		BOOL onlyplayermoves;
                           A  3175    ;  295		
                           A  3176    ;  296		n1 = currentlevel.data[yn1][xn1];
                           A  3177    .LINE 296
                           A  3178    
0003B8 01 B7 08 00         A  3179    	LD	BC,_currentlevel+7
0003BC DD0FE5              A  3180    	LD	(IX+%FFFFFFE5),BC
0003BF DD0FEC              A  3181    	LD	(IX+%FFFFFFEC),BC
0003C2 DD0709              A  3182    	LD	BC,(IX+%9)
0003C5 CD 00 00 00         A  3183    	CALL	__stoiu
0003C9 3E28                A  3184    	LD	A,%28
0003CB CD 00 00 00         A  3185    	CALL	__imul_b
0003CF DD2FFD              A  3186    	LD	(IX+%FFFFFFFD),HL
0003D2 DD2FEF              A  3187    	LD	(IX+%FFFFFFEF),HL
0003D5 DD2FF2              A  3188    	LD	(IX+%FFFFFFF2),HL
0003D8 DD2FE8              A  3189    	LD	(IX+%FFFFFFE8),HL
0003DB 01 B7 08 00         A  3190    	LD	BC,_currentlevel+7
0003DF DD27FD              A  3191    	LD	HL,(IX+%FFFFFFFD)
0003E2 09                  A  3192    	ADD	HL,BC
0003E3 E5D1                A  3193    	LD	DE,HL
0003E5 DD0706              A  3194    	LD	BC,(IX+%6)
0003E8 CD 00 00 00         A  3195    	CALL	__stoiu
0003EC 19                  A  3196    	ADD	HL,DE
0003ED 7E                  A  3197    	LD	A,(HL)
0003EE DD77FB              A  3198    	LD	(IX+%FFFFFFFB),A
                           A  3199    ;  297		n2 = currentlevel.data[yn2][xn2];
                           A  3200    .LINE 297
                           A  3201    
0003F1 DD070F              A  3202    	LD	BC,(IX+%F)
0003F4 CD 00 00 00         A  3203    	CALL	__stoiu
0003F8 3E28                A  3204    	LD	A,%28
0003FA CD 00 00 00         A  3205    	CALL	__imul_b
0003FE DD2FF8              A  3206    	LD	(IX+%FFFFFFF8),HL
000401 01 B7 08 00         A  3207    	LD	BC,_currentlevel+7
000405 DD27F8              A  3208    	LD	HL,(IX+%FFFFFFF8)
000408 09                  A  3209    	ADD	HL,BC
000409 E5D1                A  3210    	LD	DE,HL
00040B DD070C              A  3211    	LD	BC,(IX+%C)
00040E CD 00 00 00         A  3212    	CALL	__stoiu
000412 19                  A  3213    	ADD	HL,DE
000413 7E                  A  3214    	LD	A,(HL)
000414 DD77EB              A  3215    	LD	(IX+%FFFFFFEB),A
                           A  3216    ;  298	
                           A  3217    ;  299		
                           A  3218    ;  300		switch(n1)
                           A  3219    .LINE 300
                           A  3220    
000417 DD7EFB              A  3221    	LD	A,(IX+%FFFFFFFB)
00041A B7ED62              A  3222    	UEXT	HL
00041D 6F                  A  3223    	LD	L,A
00041E E5C1                A  3224    	LD	BC,HL
000420                     A  3225    L__22:
000420 112E0000            A  3226    	LD	DE,46
000424 B7                  A  3227    	OR	A,A
000425 ED52                A  3228    	SBC	HL,DE
000427 28 4A               A  3229    	JR	Z,L_31
000429 212E0000            A  3230    	LD	HL,46
00042D B7                  A  3231    	OR	A,A
00042E ED42                A  3232    	SBC	HL,BC
000430 38 77               A  3233    	JR	C,L_32
000432 11200000            A  3234    	LD	DE,32
000436 C5E1                A  3235    	LD	HL,BC
000438 B7                  A  3236    	OR	A,A
000439 ED52                A  3237    	SBC	HL,DE
00043B 20 6C               A  3238    	JR	NZ,L_32
                           A  3239    ;  301		{
                           A  3240    ;  302			case CHAR_FLOOR:
                           A  3241    .LINE 302
                           A  3242    
                           A  3243    ;  303				onlyplayermoves = TRUE;
                           A  3244    .LINE 303
                           A  3245    
00043D DD36FC01            A  3246    	LD	(IX+%FFFFFFFC),%1
                           A  3247    ;  304				currentlevel.data[yn1][xn1]
                           A  3248    .LINE 304
                           A  3249    
000441 01 B7 08 00         A  3250    	LD	BC,_currentlevel+7
000445 DD0FE5              A  3251    	LD	(IX+%FFFFFFE5),BC
000448 DD0FEC              A  3252    	LD	(IX+%FFFFFFEC),BC
00044B DD07FD              A  3253    	LD	BC,(IX+%FFFFFFFD)
00044E DD0FEF              A  3254    	LD	(IX+%FFFFFFEF),BC
000451 DD07FD              A  3255    	LD	BC,(IX+%FFFFFFFD)
000454 DD0FF2              A  3256    	LD	(IX+%FFFFFFF2),BC
000457 DD07FD              A  3257    	LD	BC,(IX+%FFFFFFFD)
00045A DD0FE8              A  3258    	LD	(IX+%FFFFFFE8),BC
00045D 01 B7 08 00         A  3259    	LD	BC,_currentlevel+7
000461 DD27FD              A  3260    	LD	HL,(IX+%FFFFFFFD)
000464 09                  A  3261    	ADD	HL,BC
000465 E5D1                A  3262    	LD	DE,HL
000467 DD0706              A  3263    	LD	BC,(IX+%6)
00046A CD 00 00 00         A  3264    	CALL	__stoiu
00046E 19                  A  3265    	ADD	HL,DE
00046F 3640                A  3266    	LD	(HL),%40
                           A  3267    ;  305				break;
                           A  3268    .LINE 305
                           A  3269    
000471 18 3A               A  3270    	JR	L_43
                           A  3271    ;  306			case CHAR_GOAL:
000473                     A  3272    L_31:
                           A  3273    .LINE 306
                           A  3274    
                           A  3275    ;  307				onlyplayermoves = TRUE;
                           A  3276    .LINE 307
                           A  3277    
000473 DD36FC01            A  3278    	LD	(IX+%FFFFFFFC),%1
                           A  3279    ;  308				currentlevel.data[yn1][xn1]
                           A  3280    .LINE 308
                           A  3281    
000477 01 B7 08 00         A  3282    	LD	BC,_currentlevel+7
00047B DD0FE5              A  3283    	LD	(IX+%FFFFFFE5),BC
00047E DD0FEC              A  3284    	LD	(IX+%FFFFFFEC),BC
000481 DD07FD              A  3285    	LD	BC,(IX+%FFFFFFFD)
000484 DD0FEF              A  3286    	LD	(IX+%FFFFFFEF),BC
000487 DD07FD              A  3287    	LD	BC,(IX+%FFFFFFFD)
00048A DD0FF2              A  3288    	LD	(IX+%FFFFFFF2),BC
00048D DD07FD              A  3289    	LD	BC,(IX+%FFFFFFFD)
000490 DD0FE8              A  3290    	LD	(IX+%FFFFFFE8),BC
000493 01 B7 08 00         A  3291    	LD	BC,_currentlevel+7
000497 DD27FD              A  3292    	LD	HL,(IX+%FFFFFFFD)
00049A 09                  A  3293    	ADD	HL,BC
00049B E5D1                A  3294    	LD	DE,HL
00049D DD0706              A  3295    	LD	BC,(IX+%6)
0004A0 CD 00 00 00         A  3296    	CALL	__stoiu
0004A4 19                  A  3297    	ADD	HL,DE
0004A5 362B                A  3298    	LD	(HL),%2B
                           A  3299    ;  309				break;
                           A  3300    .LINE 309
                           A  3301    
0004A7 18 04               A  3302    	JR	L_43
                           A  3303    ;  310			default:
0004A9                     A  3304    L_32:
                           A  3305    .LINE 310
                           A  3306    
                           A  3307    ;  311				onlyplayermoves = FALSE;
                           A  3308    .LINE 311
                           A  3309    
0004A9 DD36FC00            A  3310    	LD	(IX+%FFFFFFFC),%0
                           A  3311    ;  312				break;
                           A  3312    ;  313		}
0004AD                     A  3313    L_43:
                           A  3314    .LINE 313
                           A  3315    
                           A  3316    ;  314		if(!onlyplayermoves)
                           A  3317    .LINE 314
                           A  3318    
0004AD DD7EFC              A  3319    	LD	A,(IX+%FFFFFFFC)
0004B0 B7                  A  3320    	OR	A,A
0004B1 C2 8A 05 00         A  3321    	JR	NZ,L_46
                           A  3322    ;  315		{
                           A  3323    ;  316			switch(n2)
                           A  3324    .LINE 316
                           A  3325    
0004B5 DD7EEB              A  3326    	LD	A,(IX+%FFFFFFEB)
0004B8 B7ED62              A  3327    	UEXT	HL
0004BB 6F                  A  3328    	LD	L,A
0004BC E5C1                A  3329    	LD	BC,HL
0004BE                     A  3330    L__26:
0004BE 112E0000            A  3331    	LD	DE,46
0004C2 B7                  A  3332    	OR	A,A
0004C3 ED52                A  3333    	SBC	HL,DE
0004C5 28 29               A  3334    	JR	Z,L_34
0004C7 212E0000            A  3335    	LD	HL,46
0004CB B7                  A  3336    	OR	A,A
0004CC ED42                A  3337    	SBC	HL,BC
0004CE 38 3C               A  3338    	JR	C,L_41
0004D0 11200000            A  3339    	LD	DE,32
0004D4 C5E1                A  3340    	LD	HL,BC
0004D6 B7                  A  3341    	OR	A,A
0004D7 ED52                A  3342    	SBC	HL,DE
0004D9 20 31               A  3343    	JR	NZ,L_41
                           A  3344    ;  317			{
                           A  3345    ;  318				case CHAR_FLOOR:
                           A  3346    .LINE 318
                           A  3347    
                           A  3348    ;  319					currentlevel.data[yn2][
                           A  3349    .LINE 319
                           A  3350    
0004DB DD07F8              A  3351    	LD	BC,(IX+%FFFFFFF8)
0004DE DD27E5              A  3352    	LD	HL,(IX+%FFFFFFE5)
0004E1 09                  A  3353    	ADD	HL,BC
0004E2 E5D1                A  3354    	LD	DE,HL
0004E4 DD070C              A  3355    	LD	BC,(IX+%C)
0004E7 CD 00 00 00         A  3356    	CALL	__stoiu
0004EB 19                  A  3357    	ADD	HL,DE
0004EC 3624                A  3358    	LD	(HL),%24
                           A  3359    ;  320					break;
                           A  3360    .LINE 320
                           A  3361    
0004EE 18 1C               A  3362    	JR	L_41
                           A  3363    ;  321				case CHAR_GOAL:
0004F0                     A  3364    L_34:
                           A  3365    .LINE 321
                           A  3366    
                           A  3367    ;  322					currentlevel.data[yn2][
                           A  3368    .LINE 322
                           A  3369    
0004F0 DD07F8              A  3370    	LD	BC,(IX+%FFFFFFF8)
0004F3 DD27EC              A  3371    	LD	HL,(IX+%FFFFFFEC)
0004F6 09                  A  3372    	ADD	HL,BC
0004F7 E5D1                A  3373    	LD	DE,HL
0004F9 DD070C              A  3374    	LD	BC,(IX+%C)
0004FC CD 00 00 00         A  3375    	CALL	__stoiu
000500 19                  A  3376    	ADD	HL,DE
000501 362A                A  3377    	LD	(HL),%2A
                           A  3378    ;  323					currentlevel.goalstaken
                           A  3379    .LINE 323
                           A  3380    
000503 3A B5 08 00         A  3381    	LD	A,(_currentlevel+5)
000507 3C                  A  3382    	INC	A
000508 32 B5 08 00         A  3383    	LD	(_currentlevel+5),A
                           A  3384    ;  324					break;
                           A  3385    ;  325				default:
                           A  3386    ;  326					break; // ignore the re
                           A  3387    ;  327			}
00050C                     A  3388    L_41:
                           A  3389    .LINE 327
                           A  3390    
                           A  3391    ;  328			switch(n1)
                           A  3392    .LINE 328
                           A  3393    
00050C DD7EFB              A  3394    	LD	A,(IX+%FFFFFFFB)
00050F B7ED62              A  3395    	UEXT	HL
000512 6F                  A  3396    	LD	L,A
000513 E5C1                A  3397    	LD	BC,HL
000515                     A  3398    L__29:
000515 112A0000            A  3399    	LD	DE,42
000519 B7                  A  3400    	OR	A,A
00051A ED52                A  3401    	SBC	HL,DE
00051C 28 39               A  3402    	JR	Z,L_38
00051E 212A0000            A  3403    	LD	HL,42
000522 B7                  A  3404    	OR	A,A
000523 ED42                A  3405    	SBC	HL,BC
000525 38 0D               A  3406    	JR	C,L__31
000527 11240000            A  3407    	LD	DE,36
00052B C5E1                A  3408    	LD	HL,BC
00052D B7                  A  3409    	OR	A,A
00052E ED52                A  3410    	SBC	HL,DE
000530 28 0F               A  3411    	JR	Z,L_37
000532 18 56               A  3412    	JR	L_46
000534                     A  3413    L__31:
000534 112E0000            A  3414    	LD	DE,46
000538 C5E1                A  3415    	LD	HL,BC
00053A B7                  A  3416    	OR	A,A
00053B ED52                A  3417    	SBC	HL,DE
00053D 28 37               A  3418    	JR	Z,L_40
00053F 18 49               A  3419    	JR	L_46
                           A  3420    ;  329			{
                           A  3421    ;  330				case CHAR_BOX:
000541                     A  3422    L_37:
                           A  3423    .LINE 330
                           A  3424    
                           A  3425    ;  331					currentlevel.data[yn1][
                           A  3426    .LINE 331
                           A  3427    
000541 01 B7 08 00         A  3428    	LD	BC,_currentlevel+7
000545 DD27EF              A  3429    	LD	HL,(IX+%FFFFFFEF)
000548 09                  A  3430    	ADD	HL,BC
000549 E5D1                A  3431    	LD	DE,HL
00054B DD0706              A  3432    	LD	BC,(IX+%6)
00054E CD 00 00 00         A  3433    	CALL	__stoiu
000552 19                  A  3434    	ADD	HL,DE
000553 3640                A  3435    	LD	(HL),%40
                           A  3436    ;  332					break;
                           A  3437    .LINE 332
                           A  3438    
000555 18 33               A  3439    	JR	L_46
                           A  3440    ;  333				case CHAR_BOXONGOAL:
000557                     A  3441    L_38:
                           A  3442    .LINE 333
                           A  3443    
                           A  3444    ;  334					currentlevel.data[yn1][
                           A  3445    .LINE 334
                           A  3446    
000557 01 B7 08 00         A  3447    	LD	BC,_currentlevel+7
00055B DD27F2              A  3448    	LD	HL,(IX+%FFFFFFF2)
00055E 09                  A  3449    	ADD	HL,BC
00055F E5D1                A  3450    	LD	DE,HL
000561 DD0706              A  3451    	LD	BC,(IX+%6)
000564 CD 00 00 00         A  3452    	CALL	__stoiu
000568 19                  A  3453    	ADD	HL,DE
000569 362B                A  3454    	LD	(HL),%2B
                           A  3455    ;  335					currentlevel.goalstaken
                           A  3456    .LINE 335
                           A  3457    
00056B 3A B5 08 00         A  3458    	LD	A,(_currentlevel+5)
00056F 3D                  A  3459    	DEC	A
000570 32 B5 08 00         A  3460    	LD	(_currentlevel+5),A
                           A  3461    ;  336					break;
                           A  3462    .LINE 336
                           A  3463    
000574 18 14               A  3464    	JR	L_46
                           A  3465    ;  337				case CHAR_GOAL:
000576                     A  3466    L_40:
                           A  3467    .LINE 337
                           A  3468    
                           A  3469    ;  338					currentlevel.data[yn1][
                           A  3470    .LINE 338
                           A  3471    
000576 01 B7 08 00         A  3472    	LD	BC,_currentlevel+7
00057A DD27E8              A  3473    	LD	HL,(IX+%FFFFFFE8)
00057D 09                  A  3474    	ADD	HL,BC
00057E E5D1                A  3475    	LD	DE,HL
000580 DD0706              A  3476    	LD	BC,(IX+%6)
000583 CD 00 00 00         A  3477    	CALL	__stoiu
000587 19                  A  3478    	ADD	HL,DE
000588 362B                A  3479    	LD	(HL),%2B
                           A  3480    ;  339					break;
                           A  3481    ;  340			}
                           A  3482    ;  341		}
00058A                     A  3483    L_46:
                           A  3484    .LINE 341
                           A  3485    
                           A  3486    ;  342		
                           A  3487    ;  343		
                           A  3488    ;  344		// check where the player was stand
                           A  3489    ;  345		if(currentlevel.data[currentlevel.y
                           A  3490    .LINE 345
                           A  3491    
00058A 01 B7 08 00         A  3492    	LD	BC,_currentlevel+7
00058E DD0FF5              A  3493    	LD	(IX+%FFFFFFF5),BC
000591 3A B1 08 00         A  3494    	LD	A,(_currentlevel+1)
000595 B7ED62              A  3495    	UEXT	HL
000598 6F                  A  3496    	LD	L,A
000599 3E28                A  3497    	LD	A,%28
00059B CD 00 00 00         A  3498    	CALL	__imul_b
00059F DD07F5              A  3499    	LD	BC,(IX+%FFFFFFF5)
0005A2 09                  A  3500    	ADD	HL,BC
0005A3 E5C1                A  3501    	LD	BC,HL
0005A5 3A B0 08 00         A  3502    	LD	A,(_currentlevel)
0005A9 B7ED62              A  3503    	UEXT	HL
0005AC 6F                  A  3504    	LD	L,A
0005AD 09                  A  3505    	ADD	HL,BC
0005AE 7E                  A  3506    	LD	A,(HL)
0005AF B7ED62              A  3507    	UEXT	HL
0005B2 6F                  A  3508    	LD	L,A
0005B3 012B0000            A  3509    	LD	BC,43
0005B7 B7                  A  3510    	OR	A,A
0005B8 ED42                A  3511    	SBC	HL,BC
0005BA 20 21               A  3512    	JR	NZ,L_45
0005BC 3A B1 08 00         A  3513    	LD	A,(_currentlevel+1)
0005C0 B7ED62              A  3514    	UEXT	HL
0005C3 6F                  A  3515    	LD	L,A
0005C4 3E28                A  3516    	LD	A,%28
0005C6 CD 00 00 00         A  3517    	CALL	__imul_b
0005CA DD07F5              A  3518    	LD	BC,(IX+%FFFFFFF5)
0005CD 09                  A  3519    	ADD	HL,BC
0005CE E5C1                A  3520    	LD	BC,HL
0005D0 3A B0 08 00         A  3521    	LD	A,(_currentlevel)
0005D4 B7ED62              A  3522    	UEXT	HL
0005D7 6F                  A  3523    	LD	L,A
0005D8 09                  A  3524    	ADD	HL,BC
0005D9 362E                A  3525    	LD	(HL),%2E
                           A  3526    ;  346		else currentlevel.data[currentlevel
                           A  3527    .LINE 346
                           A  3528    
0005DB 18 1F               A  3529    	JR	L_47
0005DD                     A  3530    L_45:
0005DD 3A B1 08 00         A  3531    	LD	A,(_currentlevel+1)
0005E1 B7ED62              A  3532    	UEXT	HL
0005E4 6F                  A  3533    	LD	L,A
0005E5 3E28                A  3534    	LD	A,%28
0005E7 CD 00 00 00         A  3535    	CALL	__imul_b
0005EB DD07F5              A  3536    	LD	BC,(IX+%FFFFFFF5)
0005EE 09                  A  3537    	ADD	HL,BC
0005EF E5C1                A  3538    	LD	BC,HL
0005F1 3A B0 08 00         A  3539    	LD	A,(_currentlevel)
0005F5 B7ED62              A  3540    	UEXT	HL
0005F8 6F                  A  3541    	LD	L,A
0005F9 09                  A  3542    	ADD	HL,BC
0005FA 3620                A  3543    	LD	(HL),%20
0005FC                     A  3544    L_47:
                           A  3545    ;  347		
                           A  3546    ;  348		// update player position
                           A  3547    ;  349		currentlevel.xpos = xn1;
                           A  3548    .LINE 349
                           A  3549    
0005FC DD7E06              A  3550    	LD	A,(IX+%6)
0005FF 32 B0 08 00         A  3551    	LD	(_currentlevel),A
                           A  3552    ;  350		currentlevel.ypos = yn1;
                           A  3553    .LINE 350
                           A  3554    
000603 DD7E09              A  3555    	LD	A,(IX+%9)
000606 32 B1 08 00         A  3556    	LD	(_currentlevel+1),A
                           A  3557    ;  351	}
                           A  3558    .LINE 351
                           A  3559    
00060A DDF9                A  3560    	LD	SP,IX
00060C DDE1                A  3561    	POP	IX
00060E C9                  A  3562    	RET	
                           A  3563    
                           A  3564    
                           A  3565    ;**************************** _move_updatelevel
                           A  3566    ;Name                         Addr/Register   S
                           A  3567    ;_currentlevel                       STATIC   1
                           A  3568    ;G_4                                  IX-27    
                           A  3569    ;G_10                                 IX-24    
                           A  3570    ;n2                                   IX-21    
                           A  3571    ;G_6                                  IX-20    
                           A  3572    ;G_8                                  IX-17    
                           A  3573    ;G_9                                  IX-14    
                           A  3574    ;G_11                                 IX-11    
                           A  3575    ;G_5                                   IX-8    
                           A  3576    ;n1                                    IX-5    
                           A  3577    ;onlyplayermoves                       IX-4    
                           A  3578    ;G_1                                   IX-3    
                           A  3579    ;yn2                                  IX+15    
                           A  3580    ;xn2                                  IX+12    
                           A  3581    ;yn1                                   IX+9    
                           A  3582    ;xn1                                   IX+6    
                           A  3583    
                           A  3584    
                           A  3585    ; Stack Frame Size: 45 (bytes)
                           A  3586    ;       Spill Code: 0 (instruction)
                           A  3587    
                           A  3588    
                           A  3589    .ENDFUNC "move_updatelevel",351,"_move_updatele
                           A  3590    ;  352	
                           A  3591    ;  353	void game_play()
                           A  3592    ;  354	{
00060F                     A  3593    _game_play:
                           A  3594    .DEFINE "_game_play"
                           A  3595    
                           A  3596    .VALUE _game_play
                           A  3597    
                           A  3598    .CLASS 2
                           A  3599    
                           A  3600    .TYPE 65
                           A  3601    
                           A  3602    .ENDEF
                           A  3603    
                           A  3604    .BEGFUNC "game_play",354,"_game_play"
                           A  3605    
                           A  3606    .LINE 354
                           A  3607    
                           A  3608    .DEFINE "xn1"
                           A  3609    
                           A  3610    .CLASS 65
                           A  3611    
                           A  3612    .VALUE -2
                           A  3613    
                           A  3614    .TYPE 3
                           A  3615    
                           A  3616    .ENDEF
                           A  3617    
                           A  3618    .DEFINE "xn2"
                           A  3619    
                           A  3620    .CLASS 65
                           A  3621    
                           A  3622    .VALUE -4
                           A  3623    
                           A  3624    .TYPE 3
                           A  3625    
                           A  3626    .ENDEF
                           A  3627    
                           A  3628    .DEFINE "yn1"
                           A  3629    
                           A  3630    .CLASS 65
                           A  3631    
                           A  3632    .VALUE -6
                           A  3633    
                           A  3634    .TYPE 3
                           A  3635    
                           A  3636    .ENDEF
                           A  3637    
                           A  3638    .DEFINE "yn2"
                           A  3639    
                           A  3640    .CLASS 65
                           A  3641    
                           A  3642    .VALUE -8
                           A  3643    
                           A  3644    .TYPE 3
                           A  3645    
                           A  3646    .ENDEF
                           A  3647    
                           A  3648    .DEFINE "done"
                           A  3649    
                           A  3650    .CLASS 65
                           A  3651    
                           A  3652    .VALUE -9
                           A  3653    
                           A  3654    .TYPE 12
                           A  3655    
                           A  3656    .ENDEF
                           A  3657    
                           A  3658    .DEFINE "validmove"
                           A  3659    
                           A  3660    .CLASS 65
                           A  3661    
                           A  3662    .VALUE -10
                           A  3663    
                           A  3664    .TYPE 12
                           A  3665    
                           A  3666    .ENDEF
                           A  3667    
                           A  3668    .DEFINE "key"
                           A  3669    
                           A  3670    .CLASS 65
                           A  3671    
                           A  3672    .VALUE -11
                           A  3673    
                           A  3674    .TYPE 2
                           A  3675    
                           A  3676    .ENDEF
                           A  3677    
00060F DDE5                A  3678    	PUSH	IX
000611 DD210000 00         A  3679    	LD	IX,0
000616 DD39                A  3680    	ADD	IX,SP
000618 ED22F5              A  3681    	LEA	HL,IX+%FFFFFFF5
00061B F9                  A  3682    	LD	SP,HL
                           A  3683    ;  355		BOOL done = FALSE, validmove;
                           A  3684    .LINE 355
                           A  3685    
00061C DD36F700            A  3686    	LD	(IX+%FFFFFFF7),%0
                           A  3687    ;  356		char key;
                           A  3688    ;  357		INT16	xn1 = 0,xn2 = 0,yn1 = 0,yn2
                           A  3689    .LINE 357
                           A  3690    
000620 DD36FE00            A  3691    	LD	(IX+%FFFFFFFE),%0
000624 DD36FF00            A  3692    	LD	(IX+%FFFFFFFF),%0
000628 DD36FC00            A  3693    	LD	(IX+%FFFFFFFC),%0
00062C DD36FD00            A  3694    	LD	(IX+%FFFFFFFD),%0
000630 DD36FA00            A  3695    	LD	(IX+%FFFFFFFA),%0
000634 DD36FB00            A  3696    	LD	(IX+%FFFFFFFB),%0
000638 DD36F800            A  3697    	LD	(IX+%FFFFFFF8),%0
00063C DD36F900            A  3698    	LD	(IX+%FFFFFFF9),%0
                           A  3699    ;  358		
                           A  3700    ;  359		while(!done)
                           A  3701    .LINE 359
                           A  3702    
000640 C3 08 08 00         A  3703    	JR	L_58
000644                     A  3704    L_59:
                           A  3705    ;  360		{
                           A  3706    ;  361			//debug_print_playfieldText();
                           A  3707    ;  362			validmove = TRUE;
                           A  3708    .LINE 362
                           A  3709    
000644 DD36F601            A  3710    	LD	(IX+%FFFFFFF6),%1
                           A  3711    ;  363			key = getch();
                           A  3712    .LINE 363
                           A  3713    
000648 CD 00 00 00         A  3714    	CALL	_getch
00064C DD75F5              A  3715    	LD	(IX+%FFFFFFF5),L
                           A  3716    ;  364			switch(key)
                           A  3717    .LINE 364
                           A  3718    
00064F DD7EF5              A  3719    	LD	A,(IX+%FFFFFFF5)
000652 17ED62              A  3720    	SEXT	HL
000655 DD6EF5              A  3721    	LD	L,(IX+%FFFFFFF5)
000658 E5C1                A  3722    	LD	BC,HL
00065A                     A  3723    L__35:
00065A 11730000            A  3724    	LD	DE,115
00065E B7                  A  3725    	OR	A,A
00065F ED52                A  3726    	SBC	HL,DE
000661 CA 24 07 00         A  3727    	JR	Z,L_51
000665 21730000            A  3728    	LD	HL,115
000669 B7                  A  3729    	OR	A,A
00066A ED42                A  3730    	SBC	HL,BC
00066C 38 27               A  3731    	JR	C,L__37
00066E 11640000            A  3732    	LD	DE,100
000672 C5E1                A  3733    	LD	HL,BC
000674 B7                  A  3734    	OR	A,A
000675 ED52                A  3735    	SBC	HL,DE
000677 CA 61 07 00         A  3736    	JR	Z,L_52
00067B 21640000            A  3737    	LD	HL,100
00067F B7                  A  3738    	OR	A,A
000680 ED42                A  3739    	SBC	HL,BC
000682 DA A0 07 00         A  3740    	JR	C,L_53
000686 11610000            A  3741    	LD	DE,97
00068A C5E1                A  3742    	LD	HL,BC
00068C B7                  A  3743    	OR	A,A
00068D ED52                A  3744    	SBC	HL,DE
00068F 28 13               A  3745    	JR	Z,L_49
000691 C3 A0 07 00         A  3746    	JR	L_53
000695                     A  3747    L__37:
000695 11770000            A  3748    	LD	DE,119
000699 C5E1                A  3749    	LD	HL,BC
00069B B7                  A  3750    	OR	A,A
00069C ED52                A  3751    	SBC	HL,DE
00069E 28 45               A  3752    	JR	Z,L_50
0006A0 C3 A0 07 00         A  3753    	JR	L_53
                           A  3754    ;  365			{
                           A  3755    ;  366				case 'a':
0006A4                     A  3756    L_49:
                           A  3757    .LINE 366
                           A  3758    
                           A  3759    ;  367					xn1 = currentlevel.xpos
                           A  3760    .LINE 367
                           A  3761    
0006A4 3A B0 08 00         A  3762    	LD	A,(_currentlevel)
0006A8 4F                  A  3763    	LD	C,A
0006A9 0600                A  3764    	LD	B,%0
0006AB 0B                  A  3765    	DEC	BC
0006AC C5E1                A  3766    	LD	HL,BC
0006AE DD75FE              A  3767    	LD	(IX+%FFFFFFFE),L
0006B1 DD74FF              A  3768    	LD	(IX+%FFFFFFFF),H
                           A  3769    ;  368					yn1 = currentlevel.ypos
                           A  3770    .LINE 368
                           A  3771    
0006B4 3A B1 08 00         A  3772    	LD	A,(_currentlevel+1)
0006B8 4F                  A  3773    	LD	C,A
0006B9 0600                A  3774    	LD	B,%0
0006BB C5E1                A  3775    	LD	HL,BC
0006BD DD75FA              A  3776    	LD	(IX+%FFFFFFFA),L
0006C0 DD74FB              A  3777    	LD	(IX+%FFFFFFFB),H
                           A  3778    ;  369					xn2 = currentlevel.xpos
                           A  3779    .LINE 369
                           A  3780    
0006C3 3A B0 08 00         A  3781    	LD	A,(_currentlevel)
0006C7 4F                  A  3782    	LD	C,A
0006C8 0B                  A  3783    	DEC	BC
0006C9 0B                  A  3784    	DEC	BC
0006CA C5E1                A  3785    	LD	HL,BC
0006CC DD75FC              A  3786    	LD	(IX+%FFFFFFFC),L
0006CF DD74FD              A  3787    	LD	(IX+%FFFFFFFD),H
                           A  3788    ;  370					yn2 = currentlevel.ypos
                           A  3789    .LINE 370
                           A  3790    
0006D2 3A B1 08 00         A  3791    	LD	A,(_currentlevel+1)
0006D6 4F                  A  3792    	LD	C,A
0006D7 0600                A  3793    	LD	B,%0
0006D9 C5E1                A  3794    	LD	HL,BC
0006DB DD75F8              A  3795    	LD	(IX+%FFFFFFF8),L
0006DE DD74F9              A  3796    	LD	(IX+%FFFFFFF9),H
                           A  3797    ;  371					break;
                           A  3798    .LINE 371
                           A  3799    
0006E1 C3 A4 07 00         A  3800    	JR	L_56
                           A  3801    ;  372				case 'w':
0006E5                     A  3802    L_50:
                           A  3803    .LINE 372
                           A  3804    
                           A  3805    ;  373					xn1 = currentlevel.xpos
                           A  3806    .LINE 373
                           A  3807    
0006E5 3A B0 08 00         A  3808    	LD	A,(_currentlevel)
0006E9 4F                  A  3809    	LD	C,A
0006EA 0600                A  3810    	LD	B,%0
0006EC C5E1                A  3811    	LD	HL,BC
0006EE DD75FE              A  3812    	LD	(IX+%FFFFFFFE),L
0006F1 DD74FF              A  3813    	LD	(IX+%FFFFFFFF),H
                           A  3814    ;  374					yn1 = currentlevel.ypos
                           A  3815    .LINE 374
                           A  3816    
0006F4 3A B1 08 00         A  3817    	LD	A,(_currentlevel+1)
0006F8 4F                  A  3818    	LD	C,A
0006F9 0B                  A  3819    	DEC	BC
0006FA C5E1                A  3820    	LD	HL,BC
0006FC DD75FA              A  3821    	LD	(IX+%FFFFFFFA),L
0006FF DD74FB              A  3822    	LD	(IX+%FFFFFFFB),H
                           A  3823    ;  375					xn2 = currentlevel.xpos
                           A  3824    .LINE 375
                           A  3825    
000702 3A B0 08 00         A  3826    	LD	A,(_currentlevel)
000706 4F                  A  3827    	LD	C,A
000707 0600                A  3828    	LD	B,%0
000709 C5E1                A  3829    	LD	HL,BC
00070B DD75FC              A  3830    	LD	(IX+%FFFFFFFC),L
00070E DD74FD              A  3831    	LD	(IX+%FFFFFFFD),H
                           A  3832    ;  376					yn2 = currentlevel.ypos
                           A  3833    .LINE 376
                           A  3834    
000711 3A B1 08 00         A  3835    	LD	A,(_currentlevel+1)
000715 4F                  A  3836    	LD	C,A
000716 0B                  A  3837    	DEC	BC
000717 0B                  A  3838    	DEC	BC
000718 C5E1                A  3839    	LD	HL,BC
00071A DD75F8              A  3840    	LD	(IX+%FFFFFFF8),L
00071D DD74F9              A  3841    	LD	(IX+%FFFFFFF9),H
                           A  3842    ;  377					break;
                           A  3843    .LINE 377
                           A  3844    
000720 C3 A4 07 00         A  3845    	JR	L_56
                           A  3846    ;  378				case 's':
000724                     A  3847    L_51:
                           A  3848    .LINE 378
                           A  3849    
                           A  3850    ;  379					xn1 = currentlevel.xpos
                           A  3851    .LINE 379
                           A  3852    
000724 3A B0 08 00         A  3853    	LD	A,(_currentlevel)
000728 4F                  A  3854    	LD	C,A
000729 0600                A  3855    	LD	B,%0
00072B C5E1                A  3856    	LD	HL,BC
00072D DD75FE              A  3857    	LD	(IX+%FFFFFFFE),L
000730 DD74FF              A  3858    	LD	(IX+%FFFFFFFF),H
                           A  3859    ;  380					yn1 = currentlevel.ypos
                           A  3860    .LINE 380
                           A  3861    
000733 3A B1 08 00         A  3862    	LD	A,(_currentlevel+1)
000737 4F                  A  3863    	LD	C,A
000738 03                  A  3864    	INC	BC
000739 C5E1                A  3865    	LD	HL,BC
00073B DD75FA              A  3866    	LD	(IX+%FFFFFFFA),L
00073E DD74FB              A  3867    	LD	(IX+%FFFFFFFB),H
                           A  3868    ;  381					xn2 = currentlevel.xpos
                           A  3869    .LINE 381
                           A  3870    
000741 3A B0 08 00         A  3871    	LD	A,(_currentlevel)
000745 4F                  A  3872    	LD	C,A
000746 0600                A  3873    	LD	B,%0
000748 C5E1                A  3874    	LD	HL,BC
00074A DD75FC              A  3875    	LD	(IX+%FFFFFFFC),L
00074D DD74FD              A  3876    	LD	(IX+%FFFFFFFD),H
                           A  3877    ;  382					yn2 = currentlevel.ypos
                           A  3878    .LINE 382
                           A  3879    
000750 3A B1 08 00         A  3880    	LD	A,(_currentlevel+1)
000754 4F                  A  3881    	LD	C,A
000755 03                  A  3882    	INC	BC
000756 03                  A  3883    	INC	BC
000757 C5E1                A  3884    	LD	HL,BC
000759 DD75F8              A  3885    	LD	(IX+%FFFFFFF8),L
00075C DD74F9              A  3886    	LD	(IX+%FFFFFFF9),H
                           A  3887    ;  383					break;
                           A  3888    .LINE 383
                           A  3889    
00075F 18 43               A  3890    	JR	L_56
                           A  3891    ;  384				case 'd':
000761                     A  3892    L_52:
                           A  3893    .LINE 384
                           A  3894    
                           A  3895    ;  385					xn1 = currentlevel.xpos
                           A  3896    .LINE 385
                           A  3897    
000761 3A B0 08 00         A  3898    	LD	A,(_currentlevel)
000765 4F                  A  3899    	LD	C,A
000766 0600                A  3900    	LD	B,%0
000768 03                  A  3901    	INC	BC
000769 C5E1                A  3902    	LD	HL,BC
00076B DD75FE              A  3903    	LD	(IX+%FFFFFFFE),L
00076E DD74FF              A  3904    	LD	(IX+%FFFFFFFF),H
                           A  3905    ;  386					yn1 = currentlevel.ypos
                           A  3906    .LINE 386
                           A  3907    
000771 3A B1 08 00         A  3908    	LD	A,(_currentlevel+1)
000775 4F                  A  3909    	LD	C,A
000776 0600                A  3910    	LD	B,%0
000778 C5E1                A  3911    	LD	HL,BC
00077A DD75FA              A  3912    	LD	(IX+%FFFFFFFA),L
00077D DD74FB              A  3913    	LD	(IX+%FFFFFFFB),H
                           A  3914    ;  387					xn2 = currentlevel.xpos
                           A  3915    .LINE 387
                           A  3916    
000780 3A B0 08 00         A  3917    	LD	A,(_currentlevel)
000784 4F                  A  3918    	LD	C,A
000785 03                  A  3919    	INC	BC
000786 03                  A  3920    	INC	BC
000787 C5E1                A  3921    	LD	HL,BC
000789 DD75FC              A  3922    	LD	(IX+%FFFFFFFC),L
00078C DD74FD              A  3923    	LD	(IX+%FFFFFFFD),H
                           A  3924    ;  388					yn2 = currentlevel.ypos
                           A  3925    .LINE 388
                           A  3926    
00078F 3A B1 08 00         A  3927    	LD	A,(_currentlevel+1)
000793 4F                  A  3928    	LD	C,A
000794 0600                A  3929    	LD	B,%0
000796 C5E1                A  3930    	LD	HL,BC
000798 DD75F8              A  3931    	LD	(IX+%FFFFFFF8),L
00079B DD74F9              A  3932    	LD	(IX+%FFFFFFF9),H
                           A  3933    ;  389					break;
                           A  3934    .LINE 389
                           A  3935    
00079E 18 04               A  3936    	JR	L_56
                           A  3937    ;  390				default:
0007A0                     A  3938    L_53:
                           A  3939    .LINE 390
                           A  3940    
                           A  3941    ;  391					validmove = FALSE;
                           A  3942    .LINE 391
                           A  3943    
0007A0 DD36F600            A  3944    	LD	(IX+%FFFFFFF6),%0
                           A  3945    ;  392					break;
                           A  3946    ;  393			}
0007A4                     A  3947    L_56:
                           A  3948    .LINE 393
                           A  3949    
                           A  3950    ;  394			//printf("xn1:%d yn1:%d xn2:%d 
                           A  3951    ;  395			if(validmove)
                           A  3952    .LINE 395
                           A  3953    
0007A4 DD7EF6              A  3954    	LD	A,(IX+%FFFFFFF6)
0007A7 B7                  A  3955    	OR	A,A
0007A8 28 4B               A  3956    	JR	Z,L_57
                           A  3957    ;  396			{
                           A  3958    ;  397				if(canmove(xn1,yn1,xn2,yn2)
                           A  3959    .LINE 397
                           A  3960    
0007AA DD07F8              A  3961    	LD	BC,(IX+%FFFFFFF8)
0007AD C5                  A  3962    	PUSH	BC
0007AE DD07FC              A  3963    	LD	BC,(IX+%FFFFFFFC)
0007B1 C5                  A  3964    	PUSH	BC
0007B2 DD07FA              A  3965    	LD	BC,(IX+%FFFFFFFA)
0007B5 C5                  A  3966    	PUSH	BC
0007B6 DD07FE              A  3967    	LD	BC,(IX+%FFFFFFFE)
0007B9 C5                  A  3968    	PUSH	BC
0007BA CD 42 01 00         A  3969    	CALL	_canmove
0007BE C1                  A  3970    	POP	BC
0007BF C1                  A  3971    	POP	BC
0007C0 C1                  A  3972    	POP	BC
0007C1 C1                  A  3973    	POP	BC
0007C2 B7                  A  3974    	OR	A,A
0007C3 28 30               A  3975    	JR	Z,L_57
                           A  3976    ;  398				{
                           A  3977    ;  399					move_sprites(xn1,yn1,xn
                           A  3978    .LINE 399
                           A  3979    
0007C5 DD07F8              A  3980    	LD	BC,(IX+%FFFFFFF8)
0007C8 C5                  A  3981    	PUSH	BC
0007C9 DD07FC              A  3982    	LD	BC,(IX+%FFFFFFFC)
0007CC C5                  A  3983    	PUSH	BC
0007CD DD07FA              A  3984    	LD	BC,(IX+%FFFFFFFA)
0007D0 C5                  A  3985    	PUSH	BC
0007D1 DD07FE              A  3986    	LD	BC,(IX+%FFFFFFFE)
0007D4 C5                  A  3987    	PUSH	BC
0007D5 CD 19 02 00         A  3988    	CALL	_move_sprites
0007D9 C1                  A  3989    	POP	BC
0007DA C1                  A  3990    	POP	BC
0007DB C1                  A  3991    	POP	BC
0007DC C1                  A  3992    	POP	BC
                           A  3993    ;  400					move_updatelevel(xn1,yn
                           A  3994    .LINE 400
                           A  3995    
0007DD DD07F8              A  3996    	LD	BC,(IX+%FFFFFFF8)
0007E0 C5                  A  3997    	PUSH	BC
0007E1 DD07FC              A  3998    	LD	BC,(IX+%FFFFFFFC)
0007E4 C5                  A  3999    	PUSH	BC
0007E5 DD07FA              A  4000    	LD	BC,(IX+%FFFFFFFA)
0007E8 C5                  A  4001    	PUSH	BC
0007E9 DD07FE              A  4002    	LD	BC,(IX+%FFFFFFFE)
0007EC C5                  A  4003    	PUSH	BC
0007ED CD AB 03 00         A  4004    	CALL	_move_updatelevel
0007F1 C1                  A  4005    	POP	BC
0007F2 C1                  A  4006    	POP	BC
0007F3 C1                  A  4007    	POP	BC
0007F4 C1                  A  4008    	POP	BC
                           A  4009    ;  401				}
                           A  4010    ;  402			}
0007F5                     A  4011    L_57:
                           A  4012    .LINE 402
                           A  4013    
                           A  4014    ;  403			done = (currentlevel.goals == c
                           A  4015    .LINE 403
                           A  4016    
0007F5 3A B4 08 00         A  4017    	LD	A,(_currentlevel+4)
0007F9 21 B5 08 00         A  4018    	LD	HL,_currentlevel+5
0007FD BE                  A  4019    	CP	A,(HL)
0007FE 20 04               A  4020    	JR	NZ,L__44
000800 3E01                A  4021    	LD	A,%1
000802 18 01               A  4022    	JR	L__45
000804                     A  4023    L__44:
000804 AF                  A  4024    	XOR	A,A
000805                     A  4025    L__45:
000805 DD77F7              A  4026    	LD	(IX+%FFFFFFF7),A
                           A  4027    ;  404		}
000808                     A  4028    L_58:
                           A  4029    .LINE 404
                           A  4030    
000808 DD7EF7              A  4031    	LD	A,(IX+%FFFFFFF7)
00080B B7                  A  4032    	OR	A,A
00080C CA 44 06 00         A  4033    	JR	Z,L_59
                           A  4034    ;  405	}
                           A  4035    .LINE 405
                           A  4036    
000810 DDF9                A  4037    	LD	SP,IX
000812 DDE1                A  4038    	POP	IX
000814 C9                  A  4039    	RET	
                           A  4040    
                           A  4041    
                           A  4042    ;**************************** _game_play ******
                           A  4043    ;Name                         Addr/Register   S
                           A  4044    ;_currentlevel                       STATIC   1
                           A  4045    ;_getch                              IMPORT  --
                           A  4046    ;key                                  IX-11    
                           A  4047    ;validmove                            IX-10    
                           A  4048    ;done                                  IX-9    
                           A  4049    ;yn2                                   IX-8    
                           A  4050    ;yn1                                   IX-6    
                           A  4051    ;xn2                                   IX-4    
                           A  4052    ;xn1                                   IX-2    
                           A  4053    
                           A  4054    
                           A  4055    ; Stack Frame Size: 17 (bytes)
                           A  4056    ;       Spill Code: 0 (instruction)
                           A  4057    
                           A  4058    
                           A  4059    .ENDFUNC "game_play",405,"_game_play"
                           A  4060    ;  406	
                           A  4061    ;  407	
                           A  4062    ;  408	void debug_print_playfieldText(void)
                           A  4063    ;  409	{
000815                     A  4064    _debug_print_playfieldText:
                           A  4065    .DEFINE "_debug_print_playfieldText"
                           A  4066    
                           A  4067    .VALUE _debug_print_playfieldText
                           A  4068    
                           A  4069    .CLASS 2
                           A  4070    
                           A  4071    .TYPE 65
                           A  4072    
                           A  4073    .ENDEF
                           A  4074    
                           A  4075    .BEGFUNC "debug_print_playfieldText",409,"_debu
                           A  4076    
                           A  4077    .LINE 409
                           A  4078    
                           A  4079    .DEFINE "width"
                           A  4080    
                           A  4081    .CLASS 65
                           A  4082    
                           A  4083    .VALUE -2
                           A  4084    
                           A  4085    .TYPE 13
                           A  4086    
                           A  4087    .ENDEF
                           A  4088    
                           A  4089    .DEFINE "c"
                           A  4090    
                           A  4091    .CLASS 65
                           A  4092    
                           A  4093    .VALUE -3
                           A  4094    
                           A  4095    .TYPE 2
                           A  4096    
                           A  4097    .ENDEF
                           A  4098    
                           A  4099    .DEFINE "height"
                           A  4100    
                           A  4101    .CLASS 65
                           A  4102    
                           A  4103    .VALUE -5
                           A  4104    
                           A  4105    .TYPE 13
                           A  4106    
                           A  4107    .ENDEF
                           A  4108    
000815 DDE5                A  4109    	PUSH	IX
000817 DD210000 00         A  4110    	LD	IX,0
00081C DD39                A  4111    	ADD	IX,SP
00081E C5                  A  4112    	PUSH	BC
00081F C5                  A  4113    	PUSH	BC
000820 3B                  A  4114    	DEC	SP
000821 3B                  A  4115    	DEC	SP
                           A  4116    ;  410		UINT16 width, height;
                           A  4117    ;  411		char c;
                           A  4118    ;  412		
                           A  4119    ;  413		for(height = 0; height < currentlev
                           A  4120    .LINE 413
                           A  4121    
000822 DD36FB00            A  4122    	LD	(IX+%FFFFFFFB),%0
000826 DD36FC00            A  4123    	LD	(IX+%FFFFFFFC),%0
00082A C3 36 09 00         A  4124    	JR	L_80
00082E                     A  4125    L_78:
                           A  4126    ;  414		{
                           A  4127    ;  415			for(width = 0; width < currentl
                           A  4128    .LINE 415
                           A  4129    
00082E DD36FE00            A  4130    	LD	(IX+%FFFFFFFE),%0
000832 DD36FF00            A  4131    	LD	(IX+%FFFFFFFF),%0
000836 18 56               A  4132    	JR	L_69
000838                     A  4133    L_67:
                           A  4134    ;  416			{
                           A  4135    ;  417				c = currentlevel.data[heigh
                           A  4136    .LINE 417
                           A  4137    
000838 DD07FB              A  4138    	LD	BC,(IX+%FFFFFFFB)
00083B CD 00 00 00         A  4139    	CALL	__stoiu
00083F 3E28                A  4140    	LD	A,%28
000841 CD 00 00 00         A  4141    	CALL	__imul_b
000845 01 B7 08 00         A  4142    	LD	BC,_currentlevel+7
000849 09                  A  4143    	ADD	HL,BC
00084A E5D1                A  4144    	LD	DE,HL
00084C DD07FE              A  4145    	LD	BC,(IX+%FFFFFFFE)
00084F CD 00 00 00         A  4146    	CALL	__stoiu
000853 19                  A  4147    	ADD	HL,DE
000854 7E                  A  4148    	LD	A,(HL)
000855 DD77FD              A  4149    	LD	(IX+%FFFFFFFD),A
                           A  4150    ;  418				printf("%c",c?c:' ');
                           A  4151    .LINE 418
                           A  4152    
000858 B7                  A  4153    	OR	A,A
000859 28 0E               A  4154    	JR	Z,L_65
00085B DD7EFD              A  4155    	LD	A,(IX+%FFFFFFFD)
00085E 17ED62              A  4156    	SEXT	HL
000861 DD6EFD              A  4157    	LD	L,(IX+%FFFFFFFD)
000864 DD2FF8              A  4158    	LD	(IX+%FFFFFFF8),HL
000867 18 07               A  4159    	JR	L_66
000869                     A  4160    L_65:
000869 01200000            A  4161    	LD	BC,32
00086D DD0FF8              A  4162    	LD	(IX+%FFFFFFF8),BC
000870                     A  4163    L_66:
000870 01 00 00 00         A  4164    	LD	BC,___print_uputch
000874 ED43 00 00 00       A  4165    	LD	(___print_xputch),BC
000879 DD4EF8              A  4166    	LD	C,(IX+%FFFFFFF8)
00087C 0600                A  4167    	LD	B,%0
00087E C5                  A  4168    	PUSH	BC
00087F CD 00 00 00         A  4169    	CALL	___print_uputch
000883 C1                  A  4170    	POP	BC
000884 DD27FE              A  4171    	LD	HL,(IX+%FFFFFFFE)
000887 23                  A  4172    	INC	HL
000888 DD75FE              A  4173    	LD	(IX+%FFFFFFFE),L
00088B DD74FF              A  4174    	LD	(IX+%FFFFFFFF),H
                           A  4175    ;  419			}
00088E                     A  4176    L_69:
                           A  4177    .LINE 419
                           A  4178    
00088E 3A B2 08 00         A  4179    	LD	A,(_currentlevel+2)
000892 4F                  A  4180    	LD	C,A
000893 0600                A  4181    	LD	B,%0
000895 DD27FE              A  4182    	LD	HL,(IX+%FFFFFFFE)
000898 B7                  A  4183    	OR	A,A
000899 40ED42              A  4184    	SBC.SIS	HL,BC
00089C 38 9A               A  4185    	JR	C,L_67
                           A  4186    ;  420			printf(" ");
                           A  4187    .LINE 420
                           A  4188    
00089E 01 00 00 00         A  4189    	LD	BC,___print_uputch
0008A2 ED43 00 00 00       A  4190    	LD	(___print_xputch),BC
0008A7 01200000            A  4191    	LD	BC,32
0008AB C5                  A  4192    	PUSH	BC
0008AC CD 00 00 00         A  4193    	CALL	___print_uputch
0008B0 C1                  A  4194    	POP	BC
                           A  4195    ;  421			for(width = 0; width < currentl
                           A  4196    .LINE 421
                           A  4197    
0008B1 DD36FE00            A  4198    	LD	(IX+%FFFFFFFE),%0
0008B5 DD36FF00            A  4199    	LD	(IX+%FFFFFFFF),%0
0008B9 18 4E               A  4200    	JR	L_76
0008BB                     A  4201    L_74:
                           A  4202    ;  422			{
                           A  4203    ;  423				c = sprites[height][width] 
                           A  4204    .LINE 423
                           A  4205    
0008BB DD07FB              A  4206    	LD	BC,(IX+%FFFFFFFB)
0008BE CD 00 00 00         A  4207    	CALL	__stoiu
0008C2 3E28                A  4208    	LD	A,%28
0008C4 CD 00 00 00         A  4209    	CALL	__imul_b
0008C8 01 00 04 00         A  4210    	LD	BC,_sprites
0008CC 09                  A  4211    	ADD	HL,BC
0008CD E5D1                A  4212    	LD	DE,HL
0008CF DD07FE              A  4213    	LD	BC,(IX+%FFFFFFFE)
0008D2 CD 00 00 00         A  4214    	CALL	__stoiu
0008D6 19                  A  4215    	ADD	HL,DE
0008D7 7E                  A  4216    	LD	A,(HL)
0008D8 C630                A  4217    	ADD	A,%30
0008DA DD77FD              A  4218    	LD	(IX+%FFFFFFFD),A
                           A  4219    ;  424				if(c > '9') c = 'X';
                           A  4220    .LINE 424
                           A  4221    
0008DD 3E39                A  4222    	LD	A,%39
0008DF DDBEFD              A  4223    	CP	A,(IX+%FFFFFFFD)
0008E2 F2 EA 08 00         A  4224    	JP	P,L_73
0008E6 DD36FD58            A  4225    	LD	(IX+%FFFFFFFD),%58
0008EA                     A  4226    L_73:
                           A  4227    ;  425				printf("%c",c);
                           A  4228    .LINE 425
                           A  4229    
0008EA 01 00 00 00         A  4230    	LD	BC,___print_uputch
0008EE ED43 00 00 00       A  4231    	LD	(___print_xputch),BC
0008F3 DD6EFD              A  4232    	LD	L,(IX+%FFFFFFFD)
0008F6 4D                  A  4233    	LD	C,L
0008F7 0600                A  4234    	LD	B,%0
0008F9 C5                  A  4235    	PUSH	BC
0008FA CD 00 00 00         A  4236    	CALL	___print_uputch
0008FE C1                  A  4237    	POP	BC
0008FF DD27FE              A  4238    	LD	HL,(IX+%FFFFFFFE)
000902 23                  A  4239    	INC	HL
000903 DD75FE              A  4240    	LD	(IX+%FFFFFFFE),L
000906 DD74FF              A  4241    	LD	(IX+%FFFFFFFF),H
                           A  4242    ;  426			}
000909                     A  4243    L_76:
                           A  4244    .LINE 426
                           A  4245    
000909 3A B2 08 00         A  4246    	LD	A,(_currentlevel+2)
00090D 4F                  A  4247    	LD	C,A
00090E 0600                A  4248    	LD	B,%0
000910 DD27FE              A  4249    	LD	HL,(IX+%FFFFFFFE)
000913 B7                  A  4250    	OR	A,A
000914 40ED42              A  4251    	SBC.SIS	HL,BC
000917 38 A2               A  4252    	JR	C,L_74
                           A  4253    ;  427			printf("\n\r");
                           A  4254    .LINE 427
                           A  4255    
000919 01 00 00 00         A  4256    	LD	BC,___print_uputch
00091D ED43 00 00 00       A  4257    	LD	(___print_xputch),BC
000922 01 00 00 00         A  4258    	LD	BC,L__52
000926 C5                  A  4259    	PUSH	BC
000927 CD 00 00 00         A  4260    	CALL	___print_sendstring
00092B C1                  A  4261    	POP	BC
00092C DD27FB              A  4262    	LD	HL,(IX+%FFFFFFFB)
00092F 23                  A  4263    	INC	HL
000930 DD75FB              A  4264    	LD	(IX+%FFFFFFFB),L
000933 DD74FC              A  4265    	LD	(IX+%FFFFFFFC),H
                           A  4266    ;  428		}
000936                     A  4267    L_80:
                           A  4268    .LINE 428
                           A  4269    
000936 3A B3 08 00         A  4270    	LD	A,(_currentlevel+3)
00093A 4F                  A  4271    	LD	C,A
00093B 0600                A  4272    	LD	B,%0
00093D DD27FB              A  4273    	LD	HL,(IX+%FFFFFFFB)
000940 B7                  A  4274    	OR	A,A
000941 40ED42              A  4275    	SBC.SIS	HL,BC
000944 DA 2E 08 00         A  4276    	JR	C,L_78
                           A  4277    ;  429		
                           A  4278    ;  430	}
                           A  4279    .LINE 430
                           A  4280    
000948 DDF9                A  4281    	LD	SP,IX
00094A DDE1                A  4282    	POP	IX
00094C C9                  A  4283    	RET	
                           A  4284    
                           A  4285    
                           A  4286    ;**************************** _debug_print_play
                           A  4287    ;Name                         Addr/Register   S
                           A  4288    ;___print_sendstring                 IMPORT  --
                           A  4289    ;_sprites                            STATIC   1
                           A  4290    ;___print_xputch                     IMPORT    
                           A  4291    ;___print_uputch                     IMPORT  --
                           A  4292    ;_currentlevel                       STATIC   1
                           A  4293    ;temp63                                IX-8    
                           A  4294    ;height                                IX-5    
                           A  4295    ;c                                     IX-3    
                           A  4296    ;width                                 IX-2    
                           A  4297    
                           A  4298    
                           A  4299    ; Stack Frame Size: 14 (bytes)
                           A  4300    ;       Spill Code: 0 (instruction)
                           A  4301    
                           A  4302    
                           A  4303    .ENDFUNC "debug_print_playfieldText",430,"_debu
                           A  4304    	SEGMENT STRSECT
000000                     A  4305    L__52:
000000 0A0D00              A  4306    	DB	10,13,0
                           A  4307    	SEGMENT CODE
                           A  4308    ;  431	
                           A  4309    ;  432	void game_displayLevel(void)
                           A  4310    ;  433	{
00094D                     A  4311    _game_displayLevel:
                           A  4312    .DEFINE "_game_displayLevel"
                           A  4313    
                           A  4314    .VALUE _game_displayLevel
                           A  4315    
                           A  4316    .CLASS 2
                           A  4317    
                           A  4318    .TYPE 65
                           A  4319    
                           A  4320    .ENDEF
                           A  4321    
                           A  4322    .BEGFUNC "game_displayLevel",433,"_game_display
                           A  4323    
                           A  4324    .LINE 433
                           A  4325    
                           A  4326    .DEFINE "x"
                           A  4327    
                           A  4328    .CLASS 65
                           A  4329    
                           A  4330    .VALUE -2
                           A  4331    
                           A  4332    .TYPE 13
                           A  4333    
                           A  4334    .ENDEF
                           A  4335    
                           A  4336    .DEFINE "y"
                           A  4337    
                           A  4338    .CLASS 65
                           A  4339    
                           A  4340    .VALUE -4
                           A  4341    
                           A  4342    .TYPE 13
                           A  4343    
                           A  4344    .ENDEF
                           A  4345    
                           A  4346    .DEFINE "width"
                           A  4347    
                           A  4348    .CLASS 65
                           A  4349    
                           A  4350    .VALUE -6
                           A  4351    
                           A  4352    .TYPE 13
                           A  4353    
                           A  4354    .ENDEF
                           A  4355    
                           A  4356    .DEFINE "height"
                           A  4357    
                           A  4358    .CLASS 65
                           A  4359    
                           A  4360    .VALUE -8
                           A  4361    
                           A  4362    .TYPE 13
                           A  4363    
                           A  4364    .ENDEF
                           A  4365    
                           A  4366    .DEFINE "c"
                           A  4367    
                           A  4368    .CLASS 65
                           A  4369    
                           A  4370    .VALUE -9
                           A  4371    
                           A  4372    .TYPE 2
                           A  4373    
                           A  4374    .ENDEF
                           A  4375    
                           A  4376    .DEFINE "xstart"
                           A  4377    
                           A  4378    .CLASS 65
                           A  4379    
                           A  4380    .VALUE -11
                           A  4381    
                           A  4382    .TYPE 13
                           A  4383    
                           A  4384    .ENDEF
                           A  4385    
                           A  4386    .DEFINE "ystart"
                           A  4387    
                           A  4388    .CLASS 65
                           A  4389    
                           A  4390    .VALUE -13
                           A  4391    
                           A  4392    .TYPE 13
                           A  4393    
                           A  4394    .ENDEF
                           A  4395    
00094D DDE5                A  4396    	PUSH	IX
00094F DD210000 00         A  4397    	LD	IX,0
000954 DD39                A  4398    	ADD	IX,SP
000956 ED22F0              A  4399    	LEA	HL,IX+%FFFFFFF0
000959 F9                  A  4400    	LD	SP,HL
                           A  4401    ;  434		UINT16 width, height;
                           A  4402    ;  435		UINT16 ystart,xstart,x,y;
                           A  4403    ;  436		char c;
                           A  4404    ;  437		
                           A  4405    ;  438		// calculate on-screen base coordin
                           A  4406    ;  439		xstart = ((MAXWIDTH - currentlevel.
                           A  4407    .LINE 439
                           A  4408    
00095A 3A B2 08 00         A  4409    	LD	A,(_currentlevel+2)
00095E B7ED62              A  4410    	UEXT	HL
000961 6F                  A  4411    	LD	L,A
000962 E5C1                A  4412    	LD	BC,HL
000964 21280000            A  4413    	LD	HL,40
000968 B7                  A  4414    	OR	A,A
000969 ED42                A  4415    	SBC	HL,BC
00096B 01020000            A  4416    	LD	BC,2
00096F CD 00 00 00         A  4417    	CALL	__idivs
000973 29                  A  4418    	ADD	HL,HL
000974 29                  A  4419    	ADD	HL,HL
000975 29                  A  4420    	ADD	HL,HL
000976 29                  A  4421    	ADD	HL,HL
000977 DD75F5              A  4422    	LD	(IX+%FFFFFFF5),L
00097A DD74F6              A  4423    	LD	(IX+%FFFFFFF6),H
                           A  4424    ;  440		ystart = ((MAXHEIGHT - currentlevel
                           A  4425    .LINE 440
                           A  4426    
00097D 3A B3 08 00         A  4427    	LD	A,(_currentlevel+3)
000981 B7ED62              A  4428    	UEXT	HL
000984 6F                  A  4429    	LD	L,A
000985 E5C1                A  4430    	LD	BC,HL
000987 211E0000            A  4431    	LD	HL,30
00098B B7                  A  4432    	OR	A,A
00098C ED42                A  4433    	SBC	HL,BC
00098E 01020000            A  4434    	LD	BC,2
000992 CD 00 00 00         A  4435    	CALL	__idivs
000996 29                  A  4436    	ADD	HL,HL
000997 29                  A  4437    	ADD	HL,HL
000998 29                  A  4438    	ADD	HL,HL
000999 29                  A  4439    	ADD	HL,HL
00099A DD75F3              A  4440    	LD	(IX+%FFFFFFF3),L
00099D DD74F4              A  4441    	LD	(IX+%FFFFFFF4),H
                           A  4442    ;  441		
                           A  4443    ;  442		y = ystart;
                           A  4444    .LINE 442
                           A  4445    
0009A0 DD07F3              A  4446    	LD	BC,(IX+%FFFFFFF3)
0009A3 DD71FC              A  4447    	LD	(IX+%FFFFFFFC),C
0009A6 DD70FD              A  4448    	LD	(IX+%FFFFFFFD),B
                           A  4449    ;  443		for(height = 0; height < currentlev
                           A  4450    .LINE 443
                           A  4451    
0009A9 DD36F800            A  4452    	LD	(IX+%FFFFFFF8),%0
0009AD DD36F900            A  4453    	LD	(IX+%FFFFFFF9),%0
0009B1 C3 7C 0B 00         A  4454    	JR	L_101
0009B5                     A  4455    L_99:
                           A  4456    ;  444		{
                           A  4457    ;  445			x = xstart;
                           A  4458    .LINE 445
                           A  4459    
0009B5 DD07F5              A  4460    	LD	BC,(IX+%FFFFFFF5)
0009B8 DD71FE              A  4461    	LD	(IX+%FFFFFFFE),C
0009BB DD70FF              A  4462    	LD	(IX+%FFFFFFFF),B
                           A  4463    ;  446			for(width = 0; width < currentl
                           A  4464    .LINE 446
                           A  4465    
0009BE DD36FA00            A  4466    	LD	(IX+%FFFFFFFA),%0
0009C2 DD36FB00            A  4467    	LD	(IX+%FFFFFFFB),%0
0009C6 C3 54 0B 00         A  4468    	JR	L_97
0009CA                     A  4469    L_95:
                           A  4470    ;  447			{
                           A  4471    ;  448				c = currentlevel.data[heigh
                           A  4472    .LINE 448
                           A  4473    
0009CA DD07F8              A  4474    	LD	BC,(IX+%FFFFFFF8)
0009CD CD 00 00 00         A  4475    	CALL	__stoiu
0009D1 3E28                A  4476    	LD	A,%28
0009D3 CD 00 00 00         A  4477    	CALL	__imul_b
0009D7 DD2FF0              A  4478    	LD	(IX+%FFFFFFF0),HL
0009DA 01 B7 08 00         A  4479    	LD	BC,_currentlevel+7
0009DE DD27F0              A  4480    	LD	HL,(IX+%FFFFFFF0)
0009E1 09                  A  4481    	ADD	HL,BC
0009E2 E5D1                A  4482    	LD	DE,HL
0009E4 DD07FA              A  4483    	LD	BC,(IX+%FFFFFFFA)
0009E7 CD 00 00 00         A  4484    	CALL	__stoiu
0009EB 19                  A  4485    	ADD	HL,DE
0009EC 7E                  A  4486    	LD	A,(HL)
0009ED DD77F7              A  4487    	LD	(IX+%FFFFFFF7),A
                           A  4488    ;  449				switch(c)
                           A  4489    .LINE 449
                           A  4490    
0009F0 17ED62              A  4491    	SEXT	HL
0009F3 DD6EF7              A  4492    	LD	L,(IX+%FFFFFFF7)
0009F6 E5C1                A  4493    	LD	BC,HL
0009F8                     A  4494    L__57:
0009F8 112A0000            A  4495    	LD	DE,42
0009FC B7                  A  4496    	OR	A,A
0009FD ED52                A  4497    	SBC	HL,DE
0009FF 38 1D               A  4498    	JR	C,L__58
000A01 212B0000            A  4499    	LD	HL,43
000A05 B7                  A  4500    	OR	A,A
000A06 ED42                A  4501    	SBC	HL,BC
000A08 38 4F               A  4502    	JR	C,L__60
000A0A C5E1                A  4503    	LD	HL,BC
000A0C E5D1                A  4504    	LD	DE,HL
000A0E 29                  A  4505    	ADD	HL,HL
000A0F 19                  A  4506    	ADD	HL,DE
000A10 11 9A 09 00         A  4507    	LD	DE,L__56-126
000A14 19                  A  4508    	ADD	HL,DE
000A15 ED27                A  4509    	LD	HL,(HL)
000A17 E9                  A  4510    	JP	(HL)
000A18                     A  4511    L__56:
000A18 B60A00              A  4512    	DW24	L_88	
                           A  4513    
000A1B 980A00              A  4514    	DW24	L_86	
                           A  4515    
000A1E                     A  4516    L__58:
000A1E 11230000            A  4517    	LD	DE,35
000A22 C5E1                A  4518    	LD	HL,BC
000A24 B7                  A  4519    	OR	A,A
000A25 ED52                A  4520    	SBC	HL,DE
000A27 38 1F               A  4521    	JR	C,L__62
000A29 21240000            A  4522    	LD	HL,36
000A2D B7                  A  4523    	OR	A,A
000A2E ED42                A  4524    	SBC	HL,BC
000A30 DA 34 0B 00         A  4525    	JR	C,L_94
000A34 C5E1                A  4526    	LD	HL,BC
000A36 E5D1                A  4527    	LD	DE,HL
000A38 29                  A  4528    	ADD	HL,HL
000A39 19                  A  4529    	ADD	HL,DE
000A3A 11 D9 09 00         A  4530    	LD	DE,L__55-105
000A3E 19                  A  4531    	ADD	HL,DE
000A3F ED27                A  4532    	LD	HL,(HL)
000A41 E9                  A  4533    	JP	(HL)
000A42                     A  4534    L__55:
000A42 800A00              A  4535    	DW24	L_84	
                           A  4536    
000A45 B60A00              A  4537    	DW24	L_87	
                           A  4538    
000A48                     A  4539    L__62:
000A48 11200000            A  4540    	LD	DE,32
000A4C C5E1                A  4541    	LD	HL,BC
000A4E B7                  A  4542    	OR	A,A
000A4F ED52                A  4543    	SBC	HL,DE
000A51 CA 20 0B 00         A  4544    	JR	Z,L_92
000A55 C3 34 0B 00         A  4545    	JR	L_94
000A59                     A  4546    L__60:
000A59 11400000            A  4547    	LD	DE,64
000A5D C5E1                A  4548    	LD	HL,BC
000A5F B7                  A  4549    	OR	A,A
000A60 ED52                A  4550    	SBC	HL,DE
000A62 28 34               A  4551    	JR	Z,L_85
000A64 21400000            A  4552    	LD	HL,64
000A68 B7                  A  4553    	OR	A,A
000A69 ED42                A  4554    	SBC	HL,BC
000A6B DA 34 0B 00         A  4555    	JR	C,L_94
000A6F 112E0000            A  4556    	LD	DE,46
000A73 C5E1                A  4557    	LD	HL,BC
000A75 B7                  A  4558    	OR	A,A
000A76 ED52                A  4559    	SBC	HL,DE
000A78 CA 0A 0B 00         A  4560    	JR	Z,L_91
000A7C C3 34 0B 00         A  4561    	JR	L_94
                           A  4562    ;  450				{
                           A  4563    ;  451					case CHAR_WALL:
000A80                     A  4564    L_84:
                           A  4565    .LINE 451
                           A  4566    
                           A  4567    ;  452						bitmap_draw(TILE_WA
                           A  4568    .LINE 452
                           A  4569    
000A80 DD07FC              A  4570    	LD	BC,(IX+%FFFFFFFC)
000A83 C5                  A  4571    	PUSH	BC
000A84 DD07FE              A  4572    	LD	BC,(IX+%FFFFFFFE)
000A87 C5                  A  4573    	PUSH	BC
000A88 01000000            A  4574    	LD	BC,0
000A8C C5                  A  4575    	PUSH	BC
000A8D CD 00 00 00         A  4576    	CALL	_bitmap_draw
000A91 C1                  A  4577    	POP	BC
000A92 C1                  A  4578    	POP	BC
000A93 C1                  A  4579    	POP	BC
                           A  4580    ;  453						break;
                           A  4581    .LINE 453
                           A  4582    
000A94 C3 34 0B 00         A  4583    	JR	L_94
                           A  4584    ;  454					case CHAR_PLAYER:
000A98                     A  4585    L_85:
                           A  4586    .LINE 454
                           A  4587    
                           A  4588    ;  455					case CHAR_PLAYERONGOAL:
000A98                     A  4589    L_86:
                           A  4590    .LINE 455
                           A  4591    
                           A  4592    ;  456						sprite_select(0);
                           A  4593    .LINE 456
                           A  4594    
000A98 01000000            A  4595    	LD	BC,0
000A9C C5                  A  4596    	PUSH	BC
000A9D CD 00 00 00         A  4597    	CALL	_sprite_select
000AA1 C1                  A  4598    	POP	BC
                           A  4599    ;  457						sprite_moveTo(x,y);
                           A  4600    .LINE 457
                           A  4601    
000AA2 DD07FC              A  4602    	LD	BC,(IX+%FFFFFFFC)
000AA5 C5                  A  4603    	PUSH	BC
000AA6 DD07FE              A  4604    	LD	BC,(IX+%FFFFFFFE)
000AA9 C5                  A  4605    	PUSH	BC
000AAA CD 00 00 00         A  4606    	CALL	_sprite_moveTo
000AAE C1                  A  4607    	POP	BC
000AAF C1                  A  4608    	POP	BC
                           A  4609    ;  458						sprite_show();
                           A  4610    .LINE 458
                           A  4611    
000AB0 CD 00 00 00         A  4612    	CALL	_sprite_show
                           A  4613    ;  459						break;
                           A  4614    .LINE 459
                           A  4615    
000AB4 18 7E               A  4616    	JR	L_94
                           A  4617    ;  460					case CHAR_BOX:
000AB6                     A  4618    L_87:
                           A  4619    .LINE 460
                           A  4620    
                           A  4621    ;  461					case CHAR_BOXONGOAL:
000AB6                     A  4622    L_88:
                           A  4623    .LINE 461
                           A  4624    
                           A  4625    ;  462						sprite_select(sprit
                           A  4626    .LINE 462
                           A  4627    
000AB6 01 00 04 00         A  4628    	LD	BC,_sprites
000ABA DD27F0              A  4629    	LD	HL,(IX+%FFFFFFF0)
000ABD 09                  A  4630    	ADD	HL,BC
000ABE E5D1                A  4631    	LD	DE,HL
000AC0 DD07FA              A  4632    	LD	BC,(IX+%FFFFFFFA)
000AC3 CD 00 00 00         A  4633    	CALL	__stoiu
000AC7 19                  A  4634    	ADD	HL,DE
000AC8 4E                  A  4635    	LD	C,(HL)
000AC9 0600                A  4636    	LD	B,%0
000ACB C5                  A  4637    	PUSH	BC
000ACC CD 00 00 00         A  4638    	CALL	_sprite_select
000AD0 C1                  A  4639    	POP	BC
                           A  4640    ;  463						sprite_moveTo(x,y);
                           A  4641    .LINE 463
                           A  4642    
000AD1 DD07FC              A  4643    	LD	BC,(IX+%FFFFFFFC)
000AD4 C5                  A  4644    	PUSH	BC
000AD5 DD07FE              A  4645    	LD	BC,(IX+%FFFFFFFE)
000AD8 C5                  A  4646    	PUSH	BC
000AD9 CD 00 00 00         A  4647    	CALL	_sprite_moveTo
000ADD C1                  A  4648    	POP	BC
000ADE C1                  A  4649    	POP	BC
                           A  4650    ;  464						sprite_show();
                           A  4651    .LINE 464
                           A  4652    
000ADF CD 00 00 00         A  4653    	CALL	_sprite_show
                           A  4654    ;  465						if(c == CHAR_BOXONG
                           A  4655    .LINE 465
                           A  4656    
000AE3 DD7EF7              A  4657    	LD	A,(IX+%FFFFFFF7)
000AE6 FE2A                A  4658    	CP	A,%2A
000AE8 20 4A               A  4659    	JR	NZ,L_94
                           A  4660    ;  466						{
                           A  4661    ;  467							bitmap_draw(TIL
                           A  4662    .LINE 467
                           A  4663    
000AEA DD07FC              A  4664    	LD	BC,(IX+%FFFFFFFC)
000AED C5                  A  4665    	PUSH	BC
000AEE DD07FE              A  4666    	LD	BC,(IX+%FFFFFFFE)
000AF1 C5                  A  4667    	PUSH	BC
000AF2 01050000            A  4668    	LD	BC,5
000AF6 C5                  A  4669    	PUSH	BC
000AF7 CD 00 00 00         A  4670    	CALL	_bitmap_draw
000AFB C1                  A  4671    	POP	BC
000AFC C1                  A  4672    	POP	BC
000AFD C1                  A  4673    	POP	BC
                           A  4674    ;  468							delayms(SENDDEL
                           A  4675    .LINE 468
                           A  4676    
000AFE 01010000            A  4677    	LD	BC,1
000B02 C5                  A  4678    	PUSH	BC
000B03 CD 00 00 00         A  4679    	CALL	_delayms
000B07 C1                  A  4680    	POP	BC
                           A  4681    ;  469						}
                           A  4682    .LINE 469
                           A  4683    
                           A  4684    ;  470						break;
                           A  4685    .LINE 470
                           A  4686    
000B08 18 2A               A  4687    	JR	L_94
                           A  4688    ;  471					case CHAR_GOAL:
000B0A                     A  4689    L_91:
                           A  4690    .LINE 471
                           A  4691    
                           A  4692    ;  472						bitmap_draw(TILE_GO
                           A  4693    .LINE 472
                           A  4694    
000B0A DD07FC              A  4695    	LD	BC,(IX+%FFFFFFFC)
000B0D C5                  A  4696    	PUSH	BC
000B0E DD07FE              A  4697    	LD	BC,(IX+%FFFFFFFE)
000B11 C5                  A  4698    	PUSH	BC
000B12 01050000            A  4699    	LD	BC,5
000B16 C5                  A  4700    	PUSH	BC
000B17 CD 00 00 00         A  4701    	CALL	_bitmap_draw
000B1B C1                  A  4702    	POP	BC
000B1C C1                  A  4703    	POP	BC
000B1D C1                  A  4704    	POP	BC
                           A  4705    ;  473						break;
                           A  4706    .LINE 473
                           A  4707    
000B1E 18 14               A  4708    	JR	L_94
                           A  4709    ;  474					case CHAR_FLOOR:
000B20                     A  4710    L_92:
                           A  4711    .LINE 474
                           A  4712    
                           A  4713    ;  475						bitmap_draw(TILE_FL
                           A  4714    .LINE 475
                           A  4715    
000B20 DD07FC              A  4716    	LD	BC,(IX+%FFFFFFFC)
000B23 C5                  A  4717    	PUSH	BC
000B24 DD07FE              A  4718    	LD	BC,(IX+%FFFFFFFE)
000B27 C5                  A  4719    	PUSH	BC
000B28 01060000            A  4720    	LD	BC,6
000B2C C5                  A  4721    	PUSH	BC
000B2D CD 00 00 00         A  4722    	CALL	_bitmap_draw
000B31 C1                  A  4723    	POP	BC
000B32 C1                  A  4724    	POP	BC
000B33 C1                  A  4725    	POP	BC
                           A  4726    ;  476						break;
                           A  4727    ;  477					default:
                           A  4728    ;  478						break;
                           A  4729    ;  479				}
000B34                     A  4730    L_94:
                           A  4731    .LINE 479
                           A  4732    
                           A  4733    ;  480				delayms(SENDDELAY);
                           A  4734    .LINE 480
                           A  4735    
000B34 01010000            A  4736    	LD	BC,1
000B38 C5                  A  4737    	PUSH	BC
000B39 CD 00 00 00         A  4738    	CALL	_delayms
000B3D C1                  A  4739    	POP	BC
                           A  4740    ;  481				x += BITMAP_WIDTH;
                           A  4741    .LINE 481
                           A  4742    
000B3E DD31FE              A  4743    	LD	IY,(IX+%FFFFFFFE)
000B41 ED2310              A  4744    	LEA	HL,IY+%10
000B44 DD75FE              A  4745    	LD	(IX+%FFFFFFFE),L
000B47 DD74FF              A  4746    	LD	(IX+%FFFFFFFF),H
000B4A DD27FA              A  4747    	LD	HL,(IX+%FFFFFFFA)
000B4D 23                  A  4748    	INC	HL
000B4E DD75FA              A  4749    	LD	(IX+%FFFFFFFA),L
000B51 DD74FB              A  4750    	LD	(IX+%FFFFFFFB),H
                           A  4751    ;  482			}
000B54                     A  4752    L_97:
                           A  4753    .LINE 482
                           A  4754    
000B54 3A B2 08 00         A  4755    	LD	A,(_currentlevel+2)
000B58 4F                  A  4756    	LD	C,A
000B59 0600                A  4757    	LD	B,%0
000B5B DD27FA              A  4758    	LD	HL,(IX+%FFFFFFFA)
000B5E B7                  A  4759    	OR	A,A
000B5F 40ED42              A  4760    	SBC.SIS	HL,BC
000B62 DA CA 09 00         A  4761    	JR	C,L_95
                           A  4762    ;  483			y += BITMAP_HEIGHT;
                           A  4763    .LINE 483
                           A  4764    
000B66 DD31FC              A  4765    	LD	IY,(IX+%FFFFFFFC)
000B69 ED2310              A  4766    	LEA	HL,IY+%10
000B6C DD75FC              A  4767    	LD	(IX+%FFFFFFFC),L
000B6F DD74FD              A  4768    	LD	(IX+%FFFFFFFD),H
000B72 DD27F8              A  4769    	LD	HL,(IX+%FFFFFFF8)
000B75 23                  A  4770    	INC	HL
000B76 DD75F8              A  4771    	LD	(IX+%FFFFFFF8),L
000B79 DD74F9              A  4772    	LD	(IX+%FFFFFFF9),H
                           A  4773    ;  484		}	
000B7C                     A  4774    L_101:
                           A  4775    .LINE 484
                           A  4776    
000B7C 3A B3 08 00         A  4777    	LD	A,(_currentlevel+3)
000B80 4F                  A  4778    	LD	C,A
000B81 0600                A  4779    	LD	B,%0
000B83 DD27F8              A  4780    	LD	HL,(IX+%FFFFFFF8)
000B86 B7                  A  4781    	OR	A,A
000B87 40ED42              A  4782    	SBC.SIS	HL,BC
000B8A DA B5 09 00         A  4783    	JR	C,L_99
                           A  4784    ;  485	}
                           A  4785    .LINE 485
                           A  4786    
000B8E DDF9                A  4787    	LD	SP,IX
000B90 DDE1                A  4788    	POP	IX
000B92 C9                  A  4789    	RET	
                           A  4790    
                           A  4791    
                           A  4792    ;**************************** _game_displayLeve
                           A  4793    ;Name                         Addr/Register   S
                           A  4794    ;_delayms                            IMPORT  --
                           A  4795    ;_sprites                            STATIC   1
                           A  4796    ;_sprite_show                        IMPORT  --
                           A  4797    ;_sprite_moveTo                      IMPORT  --
                           A  4798    ;_sprite_select                      IMPORT  --
                           A  4799    ;_bitmap_draw                        IMPORT  --
                           A  4800    ;_currentlevel                       STATIC   1
                           A  4801    ;G_13                                 IX-16    
                           A  4802    ;ystart                               IX-13    
                           A  4803    ;xstart                               IX-11    
                           A  4804    ;c                                     IX-9    
                           A  4805    ;height                                IX-8    
                           A  4806    ;width                                 IX-6    
                           A  4807    ;y                                     IX-4    
                           A  4808    ;x                                     IX-2    
                           A  4809    
                           A  4810    
                           A  4811    ; Stack Frame Size: 22 (bytes)
                           A  4812    ;       Spill Code: 0 (instruction)
                           A  4813    
                           A  4814    
                           A  4815    .ENDFUNC "game_displayLevel",485,"_game_display
                           A  4816    ;  486	
                           A  4817    ;  487	
                           A  4818    ;  488	UINT16 read_numberoflevels(void)
                           A  4819    ;  489	{
000B93                     A  4820    _read_numberoflevels:
                           A  4821    .DEFINE "_read_numberoflevels"
                           A  4822    
                           A  4823    .VALUE _read_numberoflevels
                           A  4824    
                           A  4825    .CLASS 2
                           A  4826    
                           A  4827    .TYPE 77
                           A  4828    
                           A  4829    .ENDEF
                           A  4830    
                           A  4831    .BEGFUNC "read_numberoflevels",489,"_read_numbe
                           A  4832    
                           A  4833    .LINE 489
                           A  4834    
                           A  4835    .DEFINE "levels"
                           A  4836    
                           A  4837    .CLASS 65
                           A  4838    
                           A  4839    .VALUE -2
                           A  4840    
                           A  4841    .TYPE 13
                           A  4842    
                           A  4843    .ENDEF
                           A  4844    
                           A  4845    .DEFINE "fr"
                           A  4846    
                           A  4847    .CLASS 65
                           A  4848    
                           A  4849    .VALUE -5
                           A  4850    
                           A  4851    .TYPE 4
                           A  4852    
                           A  4853    .ENDEF
                           A  4854    
                           A  4855    .DEFINE "fSize"
                           A  4856    
                           A  4857    .CLASS 65
                           A  4858    
                           A  4859    .VALUE -9
                           A  4860    
                           A  4861    .TYPE 15
                           A  4862    
                           A  4863    .ENDEF
                           A  4864    
                           A  4865    .DEFINE "fil"
                           A  4866    
                           A  4867    .CLASS 65
                           A  4868    
                           A  4869    .VALUE -557
                           A  4870    
                           A  4871    .TAG "NONAME6"
                           A  4872    
                           A  4873    .TYPE 8
                           A  4874    
                           A  4875    .ENDEF
                           A  4876    
000B93 DDE5                A  4877    	PUSH	IX
000B95 DD210000 00         A  4878    	LD	IX,0
000B9A DD39                A  4879    	ADD	IX,SP
000B9C 21D3FDFF            A  4880    	LD	HL,-557
000BA0 39                  A  4881    	ADD	HL,SP
000BA1 F9                  A  4882    	LD	SP,HL
                           A  4883    ;  490		// returns the number of levels in 
                           A  4884    ;  491		FIL	   	fil;
                           A  4885    ;  492		UINT   	br;	
                           A  4886    ;  493		FSIZE_t fSize;
                           A  4887    ;  494		UINT16	levels;
                           A  4888    ;  495		FRESULT	fr;
                           A  4889    ;  496	
                           A  4890    ;  497		fr = f_open(&fil, FILENAME_LEVELS, 
                           A  4891    .LINE 497
                           A  4892    
000BA2 01010000            A  4893    	LD	BC,1
000BA6 C5                  A  4894    	PUSH	BC
000BA7 01 03 00 00         A  4895    	LD	BC,L__71
000BAB C5                  A  4896    	PUSH	BC
000BAC DDE5E1              A  4897    	LD	HL,IX
000BAF 01D3FDFF            A  4898    	LD	BC,-557
000BB3 09                  A  4899    	ADD	HL,BC
000BB4 E5C1                A  4900    	LD	BC,HL
000BB6 C5                  A  4901    	PUSH	BC
000BB7 CD 00 00 00         A  4902    	CALL	_f_open
000BBB C1                  A  4903    	POP	BC
000BBC C1                  A  4904    	POP	BC
000BBD C1                  A  4905    	POP	BC
000BBE DD2FFB              A  4906    	LD	(IX+%FFFFFFFB),HL
                           A  4907    ;  498		if(fr == FR_OK) {
                           A  4908    .LINE 498
                           A  4909    
000BC1 01000000            A  4910    	LD	BC,0
000BC5 DD27FB              A  4911    	LD	HL,(IX+%FFFFFFFB)
000BC8 B7                  A  4912    	OR	A,A
000BC9 ED42                A  4913    	SBC	HL,BC
000BCB 20 2A               A  4914    	JR	NZ,L_104
                           A  4915    ;  499			fSize = f_size(&fil);
                           A  4916    .LINE 499
                           A  4917    
000BCD 21DEFDFF            A  4918    	LD	HL,-546
000BD1 DDE5C1              A  4919    	LD	BC,IX
000BD4 09                  A  4920    	ADD	HL,BC
000BD5 ED07                A  4921    	LD	BC,(HL)
000BD7 23                  A  4922    	INC	HL
000BD8 23                  A  4923    	INC	HL
000BD9 23                  A  4924    	INC	HL
000BDA 7E                  A  4925    	LD	A,(HL)
000BDB DD0FF7              A  4926    	LD	(IX+%FFFFFFF7),BC
000BDE DD77FA              A  4927    	LD	(IX+%FFFFFFFA),A
                           A  4928    ;  500			levels = fSize / sizeof(struct 
                           A  4929    .LINE 500
                           A  4930    
000BE1 C5E1                A  4931    	LD	HL,BC
000BE3 DD5EFA              A  4932    	LD	E,(IX+%FFFFFFFA)
000BE6 01B70400            A  4933    	LD	BC,1207
000BEA AF                  A  4934    	XOR	A,A
000BEB CD 00 00 00         A  4935    	CALL	__ldivu
000BEF DD75FE              A  4936    	LD	(IX+%FFFFFFFE),L
000BF2 DD74FF              A  4937    	LD	(IX+%FFFFFFFF),H
                           A  4938    ;  501		}
                           A  4939    ;  502		else {
                           A  4940    .LINE 502
                           A  4941    
000BF5 18 0E               A  4942    	JR	L_105
000BF7                     A  4943    L_104:
                           A  4944    ;  503			mos_fileError(fr);
                           A  4945    .LINE 503
                           A  4946    
000BF7 DD07FB              A  4947    	LD	BC,(IX+%FFFFFFFB)
000BFA C5                  A  4948    	PUSH	BC
000BFB CD 00 00 00         A  4949    	CALL	_mos_fileError
000BFF C1                  A  4950    	POP	BC
                           A  4951    ;  504			return 0;
                           A  4952    .LINE 504
                           A  4953    
000C00 B7                  A  4954    	OR	A,A
000C01 ED62                A  4955    	SBC	HL,HL
000C03 18 13               A  4956    	JR	L_106
                           A  4957    ;  505		}
000C05                     A  4958    L_105:
                           A  4959    .LINE 505
                           A  4960    
                           A  4961    ;  506		f_close(&fil);
                           A  4962    .LINE 506
                           A  4963    
000C05 DDE5E1              A  4964    	LD	HL,IX
000C08 01D3FDFF            A  4965    	LD	BC,-557
000C0C 09                  A  4966    	ADD	HL,BC
000C0D E5C1                A  4967    	LD	BC,HL
000C0F C5                  A  4968    	PUSH	BC
000C10 CD 00 00 00         A  4969    	CALL	_f_close
000C14 C1                  A  4970    	POP	BC
                           A  4971    ;  507		return levels;	
                           A  4972    .LINE 507
                           A  4973    
000C15 DD27FE              A  4974    	LD	HL,(IX+%FFFFFFFE)
                           A  4975    ;  508	}
000C18                     A  4976    L_106:
                           A  4977    .LINE 508
                           A  4978    
000C18 DDF9                A  4979    	LD	SP,IX
000C1A DDE1                A  4980    	POP	IX
000C1C C9                  A  4981    	RET	
                           A  4982    
                           A  4983    
                           A  4984    ;**************************** _read_numberoflev
                           A  4985    ;Name                         Addr/Register   S
                           A  4986    ;_f_close                            IMPORT  --
                           A  4987    ;_mos_fileError                      IMPORT  --
                           A  4988    ;_f_open                             IMPORT  --
                           A  4989    ;fil                                 IX-557    
                           A  4990    ;fSize                                 IX-9    
                           A  4991    ;fr                                    IX-5    
                           A  4992    ;levels                                IX-2    
                           A  4993    
                           A  4994    
                           A  4995    ; Stack Frame Size: 563 (bytes)
                           A  4996    ;       Spill Code: 0 (instruction)
                           A  4997    
                           A  4998    
                           A  4999    .ENDFUNC "read_numberoflevels",508,"_read_numbe
                           A  5000    	SEGMENT STRSECT
000003                     A  5001    L__71:
000003 6C657665 6C732E62   A  5002    	DB	"levels.bin"
00000B 696E 
00000D 00                  A  5003    	DB	0
                           A  5004    	SEGMENT CODE
                           A  5005    ;  509	
                           A  5006    ;  510	BOOL read_level(UINT8 levelid)
                           A  5007    ;  511	{
000C1D                     A  5008    _read_level:
                           A  5009    .DEFINE "_read_level"
                           A  5010    
                           A  5011    .VALUE _read_level
                           A  5012    
                           A  5013    .CLASS 2
                           A  5014    
                           A  5015    .TYPE 76
                           A  5016    
                           A  5017    .ENDEF
                           A  5018    
                           A  5019    .BEGFUNC "read_level",511,"_read_level"
                           A  5020    
                           A  5021    .LINE 511
                           A  5022    
                           A  5023    .DEFINE "levelid"
                           A  5024    
                           A  5025    .CLASS 65
                           A  5026    
                           A  5027    .VALUE 6
                           A  5028    
                           A  5029    .TYPE 12
                           A  5030    
                           A  5031    .ENDEF
                           A  5032    
                           A  5033    .DEFINE "fr"
                           A  5034    
                           A  5035    .CLASS 65
                           A  5036    
                           A  5037    .VALUE -3
                           A  5038    
                           A  5039    .TYPE 4
                           A  5040    
                           A  5041    .ENDEF
                           A  5042    
                           A  5043    .DEFINE "br"
                           A  5044    
                           A  5045    .CLASS 65
                           A  5046    
                           A  5047    .VALUE -6
                           A  5048    
                           A  5049    .TYPE 14
                           A  5050    
                           A  5051    .ENDEF
                           A  5052    
                           A  5053    .DEFINE "fil"
                           A  5054    
                           A  5055    .CLASS 65
                           A  5056    
                           A  5057    .VALUE -554
                           A  5058    
                           A  5059    .TAG "NONAME6"
                           A  5060    
                           A  5061    .TYPE 8
                           A  5062    
                           A  5063    .ENDEF
                           A  5064    
000C1D DDE5                A  5065    	PUSH	IX
000C1F DD210000 00         A  5066    	LD	IX,0
000C24 DD39                A  5067    	ADD	IX,SP
000C26 21D5FDFF            A  5068    	LD	HL,-555
000C2A 39                  A  5069    	ADD	HL,SP
000C2B F9                  A  5070    	LD	SP,HL
                           A  5071    ;  512		FIL	   	fil;
                           A  5072    ;  513		UINT   	br;	
                           A  5073    ;  514		FRESULT	fr;
                           A  5074    ;  515		BOOL	done = FALSE;
                           A  5075    ;  516		
                           A  5076    ;  517		fr = f_open(&fil, FILENAME_LEVELS, 
                           A  5077    .LINE 517
                           A  5078    
000C2C 01010000            A  5079    	LD	BC,1
000C30 C5                  A  5080    	PUSH	BC
000C31 01 0E 00 00         A  5081    	LD	BC,L__74
000C35 C5                  A  5082    	PUSH	BC
000C36 DDE5E1              A  5083    	LD	HL,IX
000C39 01D6FDFF            A  5084    	LD	BC,-554
000C3D 09                  A  5085    	ADD	HL,BC
000C3E E5C1                A  5086    	LD	BC,HL
000C40 C5                  A  5087    	PUSH	BC
000C41 FDE5                A  5088    	PUSH	IY
000C43 C5                  A  5089    	PUSH	BC
000C44 FD21D5FD FF         A  5090    	LD	IY,-555
000C49 DDE5C1              A  5091    	LD	BC,IX
000C4C FD09                A  5092    	ADD	IY,BC
000C4E FD7700              A  5093    	LD	(IY),A
000C51 C1                  A  5094    	POP	BC
000C52 FDE1                A  5095    	POP	IY
000C54 CD 00 00 00         A  5096    	CALL	_f_open
000C58 FDE5                A  5097    	PUSH	IY
000C5A C5                  A  5098    	PUSH	BC
000C5B FD21D5FD FF         A  5099    	LD	IY,-555
000C60 DDE5C1              A  5100    	LD	BC,IX
000C63 FD09                A  5101    	ADD	IY,BC
000C65 FD7E00              A  5102    	LD	A,(IY)
000C68 C1                  A  5103    	POP	BC
000C69 FDE1                A  5104    	POP	IY
000C6B C1                  A  5105    	POP	BC
000C6C C1                  A  5106    	POP	BC
000C6D C1                  A  5107    	POP	BC
000C6E DD2FFD              A  5108    	LD	(IX+%FFFFFFFD),HL
                           A  5109    ;  518		if(fr == FR_OK) {
                           A  5110    .LINE 518
                           A  5111    
000C71 01000000            A  5112    	LD	BC,0
000C75 DD27FD              A  5113    	LD	HL,(IX+%FFFFFFFD)
000C78 B7                  A  5114    	OR	A,A
000C79 ED42                A  5115    	SBC	HL,BC
000C7B 20 7D               A  5116    	JR	NZ,L_111
                           A  5117    ;  519			fr = f_lseek(&fil, levelid*size
                           A  5118    .LINE 519
                           A  5119    
000C7D B7ED62              A  5120    	UEXT	HL
000C80 DD6E06              A  5121    	LD	L,(IX+%6)
000C83 5C                  A  5122    	LD	E,H
000C84 01B70400            A  5123    	LD	BC,1207
000C88 AF                  A  5124    	XOR	A,A
000C89 CD 00 00 00         A  5125    	CALL	__lmulu
000C8D 4B                  A  5126    	LD	C,E
000C8E 0600                A  5127    	LD	B,%0
000C90 C5                  A  5128    	PUSH	BC
000C91 E5                  A  5129    	PUSH	HL
000C92 DDE5E1              A  5130    	LD	HL,IX
000C95 01D6FDFF            A  5131    	LD	BC,-554
000C99 09                  A  5132    	ADD	HL,BC
000C9A E5C1                A  5133    	LD	BC,HL
000C9C C5                  A  5134    	PUSH	BC
000C9D CD 00 00 00         A  5135    	CALL	_f_lseek
000CA1 C1                  A  5136    	POP	BC
000CA2 C1                  A  5137    	POP	BC
000CA3 C1                  A  5138    	POP	BC
000CA4 DD2FFD              A  5139    	LD	(IX+%FFFFFFFD),HL
                           A  5140    ;  520			if(fr == FR_OK)
                           A  5141    .LINE 520
                           A  5142    
000CA7 01000000            A  5143    	LD	BC,0
000CAB DD27FD              A  5144    	LD	HL,(IX+%FFFFFFFD)
000CAE B7                  A  5145    	OR	A,A
000CAF ED42                A  5146    	SBC	HL,BC
000CB1 20 3B               A  5147    	JR	NZ,L_109
                           A  5148    ;  521			{
                           A  5149    ;  522				fr = f_read(&fil, &currentl
                           A  5150    .LINE 522
                           A  5151    
000CB3 ED65FA              A  5152    	PEA	IX+%FFFFFFFA
000CB6 01B70400            A  5153    	LD	BC,1207
000CBA C5                  A  5154    	PUSH	BC
000CBB 01 B0 08 00         A  5155    	LD	BC,_currentlevel
000CBF C5                  A  5156    	PUSH	BC
000CC0 DDE5E1              A  5157    	LD	HL,IX
000CC3 01D6FDFF            A  5158    	LD	BC,-554
000CC7 09                  A  5159    	ADD	HL,BC
000CC8 E5C1                A  5160    	LD	BC,HL
000CCA C5                  A  5161    	PUSH	BC
000CCB CD 00 00 00         A  5162    	CALL	_f_read
000CCF C1                  A  5163    	POP	BC
000CD0 C1                  A  5164    	POP	BC
000CD1 C1                  A  5165    	POP	BC
000CD2 C1                  A  5166    	POP	BC
000CD3 DD2FFD              A  5167    	LD	(IX+%FFFFFFFD),HL
                           A  5168    ;  523				if(fr != FR_OK)
                           A  5169    .LINE 523
                           A  5170    
000CD6 01000000            A  5171    	LD	BC,0
000CDA DD27FD              A  5172    	LD	HL,(IX+%FFFFFFFD)
000CDD B7                  A  5173    	OR	A,A
000CDE ED42                A  5174    	SBC	HL,BC
000CE0 28 24               A  5175    	JR	Z,L_112
                           A  5176    ;  524				{
                           A  5177    ;  525					mos_fileError(fr);
                           A  5178    .LINE 525
                           A  5179    
000CE2 DD07FD              A  5180    	LD	BC,(IX+%FFFFFFFD)
000CE5 C5                  A  5181    	PUSH	BC
000CE6 CD 00 00 00         A  5182    	CALL	_mos_fileError
000CEA C1                  A  5183    	POP	BC
                           A  5184    ;  526					return FALSE;
                           A  5185    .LINE 526
                           A  5186    
000CEB AF                  A  5187    	XOR	A,A
000CEC 18 2A               A  5188    	JR	L_113
                           A  5189    ;  527				}
                           A  5190    ;  528			}
                           A  5191    ;  529			else
000CEE                     A  5192    L_109:
                           A  5193    .LINE 529
                           A  5194    
                           A  5195    ;  530			{
                           A  5196    ;  531				mos_fileError(fr);
                           A  5197    .LINE 531
                           A  5198    
000CEE DD07FD              A  5199    	LD	BC,(IX+%FFFFFFFD)
000CF1 C5                  A  5200    	PUSH	BC
000CF2 CD 00 00 00         A  5201    	CALL	_mos_fileError
000CF6 C1                  A  5202    	POP	BC
                           A  5203    ;  532				return FALSE;
                           A  5204    .LINE 532
                           A  5205    
000CF7 AF                  A  5206    	XOR	A,A
000CF8 18 1E               A  5207    	JR	L_113
                           A  5208    ;  533			}
                           A  5209    ;  534		}
                           A  5210    ;  535		else {
000CFA                     A  5211    L_111:
                           A  5212    .LINE 535
                           A  5213    
                           A  5214    ;  536			mos_fileError(fr);
                           A  5215    .LINE 536
                           A  5216    
000CFA DD07FD              A  5217    	LD	BC,(IX+%FFFFFFFD)
000CFD C5                  A  5218    	PUSH	BC
000CFE CD 00 00 00         A  5219    	CALL	_mos_fileError
000D02 C1                  A  5220    	POP	BC
                           A  5221    ;  537			return FALSE;
                           A  5222    .LINE 537
                           A  5223    
000D03 AF                  A  5224    	XOR	A,A
000D04 18 12               A  5225    	JR	L_113
                           A  5226    ;  538		}
000D06                     A  5227    L_112:
                           A  5228    .LINE 538
                           A  5229    
                           A  5230    ;  539		f_close(&fil);
                           A  5231    .LINE 539
                           A  5232    
000D06 DDE5E1              A  5233    	LD	HL,IX
000D09 01D6FDFF            A  5234    	LD	BC,-554
000D0D 09                  A  5235    	ADD	HL,BC
000D0E E5C1                A  5236    	LD	BC,HL
000D10 C5                  A  5237    	PUSH	BC
000D11 CD 00 00 00         A  5238    	CALL	_f_close
000D15 C1                  A  5239    	POP	BC
                           A  5240    ;  540		return TRUE;	
                           A  5241    .LINE 540
                           A  5242    
000D16 3E01                A  5243    	LD	A,%1
                           A  5244    ;  541	}
000D18                     A  5245    L_113:
                           A  5246    .LINE 541
                           A  5247    
000D18 DDF9                A  5248    	LD	SP,IX
000D1A DDE1                A  5249    	POP	IX
000D1C C9                  A  5250    	RET	
                           A  5251    
                           A  5252    
                           A  5253    ;**************************** _read_level *****
                           A  5254    ;Name                         Addr/Register   S
                           A  5255    ;_f_close                            IMPORT  --
                           A  5256    ;_mos_fileError                      IMPORT  --
                           A  5257    ;_currentlevel                       STATIC   1
                           A  5258    ;_f_read                             IMPORT  --
                           A  5259    ;_f_lseek                            IMPORT  --
                           A  5260    ;_f_open                             IMPORT  --
                           A  5261    ;fil                                 IX-554    
                           A  5262    ;br                                    IX-6    
                           A  5263    ;fr                                    IX-3    
                           A  5264    ;levelid                               IX+6    
                           A  5265    
                           A  5266    
                           A  5267    ; Stack Frame Size: 564 (bytes)
                           A  5268    ;       Spill Code: 0 (instruction)
                           A  5269    
                           A  5270    
                           A  5271    .ENDFUNC "read_level",541,"_read_level"
                           A  5272    	SEGMENT STRSECT
00000E                     A  5273    L__74:
00000E 6C657665 6C732E62   A  5274    	DB	"levels.bin"
000016 696E 
000018 00                  A  5275    	DB	0
                           A  5276    	SEGMENT CODE
                           A  5277    ;  542	
                           A  5278    ;  543	void game_createSprites(void)
                           A  5279    ;  544	{
000D1D                     A  5280    _game_createSprites:
                           A  5281    .DEFINE "_game_createSprites"
                           A  5282    
                           A  5283    .VALUE _game_createSprites
                           A  5284    
                           A  5285    .CLASS 2
                           A  5286    
                           A  5287    .TYPE 65
                           A  5288    
                           A  5289    .ENDEF
                           A  5290    
                           A  5291    .BEGFUNC "game_createSprites",544,"_game_create
                           A  5292    
                           A  5293    .LINE 544
                           A  5294    
                           A  5295    .DEFINE "x"
                           A  5296    
                           A  5297    .CLASS 65
                           A  5298    
                           A  5299    .VALUE -1
                           A  5300    
                           A  5301    .TYPE 12
                           A  5302    
                           A  5303    .ENDEF
                           A  5304    
                           A  5305    .DEFINE "boxsprite"
                           A  5306    
                           A  5307    .CLASS 65
                           A  5308    
                           A  5309    .VALUE -2
                           A  5310    
                           A  5311    .TYPE 12
                           A  5312    
                           A  5313    .ENDEF
                           A  5314    
                           A  5315    .DEFINE "y"
                           A  5316    
                           A  5317    .CLASS 65
                           A  5318    
                           A  5319    .VALUE -3
                           A  5320    
                           A  5321    .TYPE 12
                           A  5322    
                           A  5323    .ENDEF
                           A  5324    
000D1D DDE5                A  5325    	PUSH	IX
000D1F DD210000 00         A  5326    	LD	IX,0
000D24 DD39                A  5327    	ADD	IX,SP
000D26 ED22F4              A  5328    	LEA	HL,IX+%FFFFFFF4
000D29 F9                  A  5329    	LD	SP,HL
                           A  5330    ;  545		UINT8 x,y;
                           A  5331    ;  546		UINT8 boxsprite = 1;
                           A  5332    .LINE 546
                           A  5333    
000D2A DD36FE01            A  5334    	LD	(IX+%FFFFFFFE),%1
                           A  5335    ;  547		
                           A  5336    ;  548		sprite_activateTotal(0);
                           A  5337    .LINE 548
                           A  5338    
000D2E 01000000            A  5339    	LD	BC,0
000D32 C5                  A  5340    	PUSH	BC
000D33 CD 00 00 00         A  5341    	CALL	_sprite_activateTotal
000D37 C1                  A  5342    	POP	BC
                           A  5343    ;  549		
                           A  5344    ;  550		// Player sprite
                           A  5345    ;  551		sprite_select(0);
                           A  5346    .LINE 551
                           A  5347    
000D38 01000000            A  5348    	LD	BC,0
000D3C C5                  A  5349    	PUSH	BC
000D3D CD 00 00 00         A  5350    	CALL	_sprite_select
000D41 C1                  A  5351    	POP	BC
                           A  5352    ;  552		sprite_clearFrames_selected();
                           A  5353    .LINE 552
                           A  5354    
000D42 CD 00 00 00         A  5355    	CALL	_sprite_clearFrames_selected
                           A  5356    ;  553		sprite_addFrame_selected(TILE_PLAYE
                           A  5357    .LINE 553
                           A  5358    
000D46 01010000            A  5359    	LD	BC,1
000D4A C5                  A  5360    	PUSH	BC
000D4B CD 00 00 00         A  5361    	CALL	_sprite_addFrame_selected
000D4F C1                  A  5362    	POP	BC
                           A  5363    ;  554		sprite_hide();
                           A  5364    .LINE 554
                           A  5365    
000D50 CD 00 00 00         A  5366    	CALL	_sprite_hide
                           A  5367    ;  555	
                           A  5368    ;  556		// set sprite positions
                           A  5369    ;  557		for(y = 0; y < currentlevel.height;
                           A  5370    .LINE 557
                           A  5371    
000D54 DD36FD00            A  5372    	LD	(IX+%FFFFFFFD),%0
000D58 C3 3B 0E 00         A  5373    	JR	L_127
000D5C                     A  5374    L_125:
                           A  5375    ;  558		{
                           A  5376    ;  559			for(x = 0; x < currentlevel.wid
                           A  5377    .LINE 559
                           A  5378    
000D5C DD36FF00            A  5379    	LD	(IX+%FFFFFFFF),%0
000D60 C3 2C 0E 00         A  5380    	JR	L_124
000D64                     A  5381    L_122:
                           A  5382    ;  560			{
                           A  5383    ;  561				switch(currentlevel.data[y]
                           A  5384    .LINE 561
                           A  5385    
000D64 DD7EFD              A  5386    	LD	A,(IX+%FFFFFFFD)
000D67 B7ED62              A  5387    	UEXT	HL
000D6A 6F                  A  5388    	LD	L,A
000D6B 3E28                A  5389    	LD	A,%28
000D6D CD 00 00 00         A  5390    	CALL	__imul_b
000D71 DD2FFA              A  5391    	LD	(IX+%FFFFFFFA),HL
000D74 01 B7 08 00         A  5392    	LD	BC,_currentlevel+7
000D78 09                  A  5393    	ADD	HL,BC
000D79 DD2FF4              A  5394    	LD	(IX+%FFFFFFF4),HL
000D7C DD7EFF              A  5395    	LD	A,(IX+%FFFFFFFF)
000D7F B7ED62              A  5396    	UEXT	HL
000D82 6F                  A  5397    	LD	L,A
000D83 DD07F4              A  5398    	LD	BC,(IX+%FFFFFFF4)
000D86 09                  A  5399    	ADD	HL,BC
000D87 DD2FF7              A  5400    	LD	(IX+%FFFFFFF7),HL
000D8A 7E                  A  5401    	LD	A,(HL)
000D8B B7ED62              A  5402    	UEXT	HL
000D8E 6F                  A  5403    	LD	L,A
000D8F E5C1                A  5404    	LD	BC,HL
000D91                     A  5405    L__79:
000D91 112A0000            A  5406    	LD	DE,42
000D95 B7                  A  5407    	OR	A,A
000D96 ED52                A  5408    	SBC	HL,DE
000D98 28 14               A  5409    	JR	Z,L_117
000D9A 212A0000            A  5410    	LD	HL,42
000D9E B7                  A  5411    	OR	A,A
000D9F ED42                A  5412    	SBC	HL,BC
000DA1 38 72               A  5413    	JR	C,L_121
000DA3 11240000            A  5414    	LD	DE,36
000DA7 C5E1                A  5415    	LD	HL,BC
000DA9 B7                  A  5416    	OR	A,A
000DAA ED52                A  5417    	SBC	HL,DE
000DAC 20 67               A  5418    	JR	NZ,L_121
                           A  5419    ;  562				{
                           A  5420    ;  563					case CHAR_BOX:
                           A  5421    .LINE 563
                           A  5422    
                           A  5423    ;  564					case CHAR_BOXONGOAL:
000DAE                     A  5424    L_117:
                           A  5425    .LINE 564
                           A  5426    
                           A  5427    ;  565						sprite_select(boxsp
                           A  5428    .LINE 565
                           A  5429    
000DAE DD4EFE              A  5430    	LD	C,(IX+%FFFFFFFE)
000DB1 0600                A  5431    	LD	B,%0
000DB3 C5                  A  5432    	PUSH	BC
000DB4 CD 00 00 00         A  5433    	CALL	_sprite_select
000DB8 C1                  A  5434    	POP	BC
                           A  5435    ;  566						sprite_clearFrames_
                           A  5436    .LINE 566
                           A  5437    
000DB9 CD 00 00 00         A  5438    	CALL	_sprite_clearFrames_selected
                           A  5439    ;  567						sprite_addFrame_sel
                           A  5440    .LINE 567
                           A  5441    
000DBD 01030000            A  5442    	LD	BC,3
000DC1 C5                  A  5443    	PUSH	BC
000DC2 CD 00 00 00         A  5444    	CALL	_sprite_addFrame_selected
000DC6 C1                  A  5445    	POP	BC
                           A  5446    ;  568						sprite_addFrame_sel
                           A  5447    .LINE 568
                           A  5448    
000DC7 01040000            A  5449    	LD	BC,4
000DCB C5                  A  5450    	PUSH	BC
000DCC CD 00 00 00         A  5451    	CALL	_sprite_addFrame_selected
000DD0 C1                  A  5452    	POP	BC
                           A  5453    ;  569						if(currentlevel.dat
                           A  5454    .LINE 569
                           A  5455    
000DD1 DD27F7              A  5456    	LD	HL,(IX+%FFFFFFF7)
000DD4 7E                  A  5457    	LD	A,(HL)
000DD5 B7ED62              A  5458    	UEXT	HL
000DD8 6F                  A  5459    	LD	L,A
000DD9 012A0000            A  5460    	LD	BC,42
000DDD B7                  A  5461    	OR	A,A
000DDE ED42                A  5462    	SBC	HL,BC
000DE0 20 0A               A  5463    	JR	NZ,L_119
000DE2 01010000            A  5464    	LD	BC,1
000DE6 C5                  A  5465    	PUSH	BC
000DE7 CD 00 00 00         A  5466    	CALL	_sprite_setFrame
000DEB C1                  A  5467    	POP	BC
000DEC                     A  5468    L_119:
                           A  5469    ;  570						sprite_hide();
                           A  5470    .LINE 570
                           A  5471    
000DEC CD 00 00 00         A  5472    	CALL	_sprite_hide
                           A  5473    ;  571						sprites[y][x] = box
                           A  5474    .LINE 571
                           A  5475    
000DF0 01 00 04 00         A  5476    	LD	BC,_sprites
000DF4 DD27FA              A  5477    	LD	HL,(IX+%FFFFFFFA)
000DF7 09                  A  5478    	ADD	HL,BC
000DF8 E5C1                A  5479    	LD	BC,HL
000DFA DD7EFF              A  5480    	LD	A,(IX+%FFFFFFFF)
000DFD B7ED62              A  5481    	UEXT	HL
000E00 6F                  A  5482    	LD	L,A
000E01 09                  A  5483    	ADD	HL,BC
000E02 DD7EFE              A  5484    	LD	A,(IX+%FFFFFFFE)
000E05 77                  A  5485    	LD	(HL),A
                           A  5486    ;  572						//printf("X:%d, Y:%
                           A  5487    ;  573						boxsprite++;
                           A  5488    .LINE 573
                           A  5489    
000E06 DD34FE              A  5490    	INC	(IX+%FFFFFFFE)
                           A  5491    ;  574						delayms(SENDDELAY);
                           A  5492    .LINE 574
                           A  5493    
000E09 01010000            A  5494    	LD	BC,1
000E0D C5                  A  5495    	PUSH	BC
000E0E CD 00 00 00         A  5496    	CALL	_delayms
000E12 C1                  A  5497    	POP	BC
                           A  5498    ;  575						break;
                           A  5499    .LINE 575
                           A  5500    
000E13 18 14               A  5501    	JR	L_123
                           A  5502    ;  576					default:
000E15                     A  5503    L_121:
                           A  5504    .LINE 576
                           A  5505    
                           A  5506    ;  577						sprites[y][x] = NOS
                           A  5507    .LINE 577
                           A  5508    
000E15 01 00 04 00         A  5509    	LD	BC,_sprites
000E19 DD27FA              A  5510    	LD	HL,(IX+%FFFFFFFA)
000E1C 09                  A  5511    	ADD	HL,BC
000E1D E5C1                A  5512    	LD	BC,HL
000E1F DD7EFF              A  5513    	LD	A,(IX+%FFFFFFFF)
000E22 B7ED62              A  5514    	UEXT	HL
000E25 6F                  A  5515    	LD	L,A
000E26 09                  A  5516    	ADD	HL,BC
000E27 36FF                A  5517    	LD	(HL),%FF
                           A  5518    ;  578						break;
                           A  5519    ;  579				}	
                           A  5520    ;  580			}
000E29                     A  5521    L_123:
                           A  5522    .LINE 580
                           A  5523    
000E29 DD34FF              A  5524    	INC	(IX+%FFFFFFFF)
000E2C                     A  5525    L_124:
000E2C DD7EFF              A  5526    	LD	A,(IX+%FFFFFFFF)
000E2F 21 B2 08 00         A  5527    	LD	HL,_currentlevel+2
000E33 BE                  A  5528    	CP	A,(HL)
000E34 DA 64 0D 00         A  5529    	JR	C,L_122
000E38 DD34FD              A  5530    	INC	(IX+%FFFFFFFD)
                           A  5531    ;  581		}
000E3B                     A  5532    L_127:
                           A  5533    .LINE 581
                           A  5534    
000E3B DD7EFD              A  5535    	LD	A,(IX+%FFFFFFFD)
000E3E 21 B3 08 00         A  5536    	LD	HL,_currentlevel+3
000E42 BE                  A  5537    	CP	A,(HL)
000E43 DA 5C 0D 00         A  5538    	JR	C,L_125
                           A  5539    ;  582	
                           A  5540    ;  583		// activate all sprites. boxsprite 
                           A  5541    ;  584		sprite_activateTotal(boxsprite);
                           A  5542    .LINE 584
                           A  5543    
000E47 DD4EFE              A  5544    	LD	C,(IX+%FFFFFFFE)
000E4A 0600                A  5545    	LD	B,%0
000E4C C5                  A  5546    	PUSH	BC
000E4D CD 00 00 00         A  5547    	CALL	_sprite_activateTotal
000E51 C1                  A  5548    	POP	BC
                           A  5549    ;  585		//printf(" %d sprites activated\n\r
                           A  5550    ;  586		
                           A  5551    ;  587		spritenumber = boxsprite;
                           A  5552    .LINE 587
                           A  5553    
000E52 DD7EFE              A  5554    	LD	A,(IX+%FFFFFFFE)
000E55 32 67 0D 00         A  5555    	LD	(_spritenumber),A
                           A  5556    ;  588	}
                           A  5557    .LINE 588
                           A  5558    
000E59 DDF9                A  5559    	LD	SP,IX
000E5B DDE1                A  5560    	POP	IX
000E5D C9                  A  5561    	RET	
                           A  5562    
                           A  5563    
                           A  5564    ;**************************** _game_createSprit
                           A  5565    ;Name                         Addr/Register   S
                           A  5566    ;_spritenumber                       STATIC    
                           A  5567    ;_delayms                            IMPORT  --
                           A  5568    ;_sprites                            STATIC   1
                           A  5569    ;_sprite_setFrame                    IMPORT  --
                           A  5570    ;_currentlevel                       STATIC   1
                           A  5571    ;_sprite_hide                        IMPORT  --
                           A  5572    ;_sprite_addFrame_selected           IMPORT  --
                           A  5573    ;_sprite_clearFrames_selected        IMPORT  --
                           A  5574    ;_sprite_select                      IMPORT  --
                           A  5575    ;_sprite_activateTotal               IMPORT  --
                           A  5576    ;G_14                                 IX-12    
                           A  5577    ;G_15                                  IX-9    
                           A  5578    ;G_16                                  IX-6    
                           A  5579    ;y                                     IX-3    
                           A  5580    ;boxsprite                             IX-2    
                           A  5581    ;x                                     IX-1    
                           A  5582    
                           A  5583    
                           A  5584    ; Stack Frame Size: 18 (bytes)
                           A  5585    ;       Spill Code: 0 (instruction)
                           A  5586    
                           A  5587    
                           A  5588    .ENDFUNC "game_createSprites",588,"_game_create
                           A  5589    	XREF _getch:ROM
                           A  5590    	XREF _delayms:ROM
                           A  5591    	XREF _memset:ROM
                           A  5592    	XREF _sprite_moveBy:ROM
                           A  5593    	XREF _sprite_moveTo:ROM
                           A  5594    	XREF _sprite_hide:ROM
                           A  5595    	XREF _sprite_show:ROM
                           A  5596    	XREF _sprite_setFrame:ROM
                           A  5597    	XREF _sprite_addFrame_selected:ROM
                           A  5598    	XREF _sprite_select:ROM
                           A  5599    	XREF _sprite_clearFrames_selected:ROM
                           A  5600    	XREF _sprite_activateTotal:ROM
                           A  5601    	XREF _bitmap_draw:ROM
                           A  5602    	XREF _bitmap_createSolidColor:ROM
                           A  5603    	XREF _bitmap_sendData:ROM
                           A  5604    	XREF _mos_fileError:ROM
                           A  5605    	XREF _f_lseek:ROM
                           A  5606    	XREF _f_read:ROM
                           A  5607    	XREF _f_close:ROM
                           A  5608    	XREF _f_open:ROM
                           A  5609    	XREF ___print_sendstring:ROM
                           A  5610    	XREF ___print_xputch:ROM
                           A  5611    	XREF ___print_uputch:ROM
                           A  5612    	XREF __idivs:ROM
                           A  5613    	XREF __ldivu:ROM
                           A  5614    	XREF __lmulu:ROM
                           A  5615    	XREF __stoiu:ROM
                           A  5616    	XREF __imul_b:ROM
                           A  5617    	XDEF _game_createSprites
                           A  5618    	XDEF _read_level
                           A  5619    	XDEF _read_numberoflevels
                           A  5620    	XDEF _game_displayLevel
                           A  5621    	XDEF _debug_print_playfieldText
                           A  5622    	XDEF _game_play
                           A  5623    	XDEF _move_updatelevel
                           A  5624    	XDEF _move_sprites
                           A  5625    	XDEF _canmove
                           A  5626    	XDEF _game_resetlevel
                           A  5627    	XDEF _game_init
                           A  5628    	XDEF _lookup
                           A  5629    	XDEF _spritenumber
                           A  5630    	XDEF _currentlevel
                           A  5631    	XDEF _sprites
                           A  5632    	XDEF _bitmapbuffer
                           A  5633    	END


Errors: 0
Warnings: 0
Lines Assembled: 5634
